     1 00000000                                 [FORMAT "WCOFF"]
     2 00000000                                 [INSTRSET "i486p"]
     3 00000000                                 [OPTIMIZE 1]
     4 00000000                                 [OPTION 1]
     5 00000000                                 [BITS 32]
     6 00000000                                 	EXTERN	_task_now
     7 00000000                                 	EXTERN	_memman_alloc_4k
     8 00000000                                 	EXTERN	_timer_alloc
     9 00000000                                 	EXTERN	_timer_init
    10 00000000                                 	EXTERN	_timer_settime
    11 00000000                                 	EXTERN	_file_readfat
    12 00000000                                 	EXTERN	_io_cli
    13 00000000                                 	EXTERN	_fifo32_status
    14 00000000                                 	EXTERN	_fifo32_get
    15 00000000                                 	EXTERN	_io_sti
    16 00000000                                 	EXTERN	_boxfill8
    17 00000000                                 	EXTERN	_sheet_refresh
    18 00000000                                 	EXTERN	_task_sleep
    19 00000000                                 	EXTERN	_putfonts8_asc_sht
    20 00000000                                 	EXTERN	_sprintf
    21 00000000                                 	EXTERN	_myfinfo_search
    22 00000000                                 	EXTERN	_myfread
    23 00000000                                 	EXTERN	_get_size_myfdata
    24 00000000                                 	EXTERN	_myfopen
    25 00000000                                 	EXTERN	_myfwrite
    26 00000000                                 	EXTERN	_strcat
    27 00000000                                 	EXTERN	_myfsave
    28 00000000                                 	EXTERN	_myfclose
    29 00000000                                 	EXTERN	_get_newdinfo
    30 00000000                                 	EXTERN	_get_newfdata
    31 00000000                                 	EXTERN	_memman_total
    32 00000000                                 	EXTERN	_file_loadfile
    33 00000000                                 	EXTERN	_memman_free_4k
    34 00000000                                 	EXTERN	_timer_cancel
    35 00000000                                 	EXTERN	_fifo32_put
    36 00000000                                 	EXTERN	_taskctl
    37 00000000                                 	EXTERN	_open_console
    38 00000000                                 	EXTERN	_sheet_slide
    39 00000000                                 	EXTERN	_sheet_updown
    40 00000000                                 	EXTERN	_open_constask
    41 00000000                                 	EXTERN	_file_search
    42 00000000                                 	EXTERN	_file_loadfile2
    43 00000000                                 	EXTERN	_set_segmdesc
    44 00000000                                 	EXTERN	_start_app
    45 00000000                                 	EXTERN	_timer_cancelall
    46 00000000                                 	EXTERN	_sheet_free
    47 00000000                                 	EXTERN	_sheet_alloc
    48 00000000                                 	EXTERN	_sheet_setbuf
    49 00000000                                 	EXTERN	_make_window8
    50 00000000                                 	EXTERN	_putfonts8_asc
    51 00000000                                 	EXTERN	_memman_init
    52 00000000                                 	EXTERN	_memman_free
    53 00000000                                 	EXTERN	_memman_alloc
    54 00000000                                 	EXTERN	_timer_free
    55 00000000                                 	EXTERN	_io_in8
    56 00000000                                 	EXTERN	_io_out8
    57 00000000                                 [FILE "console.c"]
    58 00000000                                 	GLOBAL	_console_id
    59                                          [SECTION .data]
    60 00000000                                 	ALIGNB	4
    61 00000000                                 _console_id:
    62 00000000 00000000                        	DD	0
    63 00000004                                 	GLOBAL	_setfdata
    64 00000004                                 	ALIGNB	4
    65 00000004                                 _setfdata:
    66 00000004 00000000                        	DD	0
    67                                          [SECTION .text]
    68 00000000                                 	GLOBAL	_debug_print
    69 00000000                                 _debug_print:
    70 00000000 55                              	PUSH	EBP
    71 00000001 89 E5                           	MOV	EBP,ESP
    72 00000003 5D                              	POP	EBP
    73 00000004 C3                              	RET
    74 00000005                                 	GLOBAL	_console_task
    75 00000005                                 _console_task:
    76 00000005 55                              	PUSH	EBP
    77 00000006 89 E5                           	MOV	EBP,ESP
    78 00000008 57                              	PUSH	EDI
    79 00000009 56                              	PUSH	ESI
    80 0000000A 53                              	PUSH	EBX
    81 0000000B 81 EC 00000100                  	SUB	ESP,256
    82 00000011 8B 5D 08                        	MOV	EBX,DWORD [8+EBP]
    83 00000014 E8 [00000000]                   	CALL	_task_now
    84 00000019 68 00002D00                     	PUSH	11520
    85 0000001E 89 C7                           	MOV	EDI,EAX
    86 00000020 68 003C0000                     	PUSH	3932160
    87 00000025 E8 [00000000]                   	CALL	_memman_alloc_4k
    88 0000002A 89 5D D4                        	MOV	DWORD [-44+EBP],EBX
    89 0000002D C7 45 E8 00400000               	MOV	DWORD [-24+EBP],4194304
    90 00000034 89 85 FFFFFF00                  	MOV	DWORD [-256+EBP],EAX
    91 0000003A A1 00000FE8                     	MOV	EAX,DWORD [4072]
    92 0000003F 89 85 FFFFFEF8                  	MOV	DWORD [-264+EBP],EAX
    93 00000045 A1 [00000000]                   	MOV	EAX,DWORD [_console_id]
    94 0000004A 89 45 EC                        	MOV	DWORD [-20+EBP],EAX
    95 0000004D 40                              	INC	EAX
    96 0000004E A3 [00000000]                   	MOV	DWORD [_console_id],EAX
    97 00000053 85 DB                           	TEST	EBX,EBX
    98 00000055 8D 45 D4                        	LEA	EAX,DWORD [-44+EBP]
    99 00000058 89 87 000000A4                  	MOV	DWORD [164+EDI],EAX
   100 0000005E 8D 85 FFFFFF04                  	LEA	EAX,DWORD [-252+EBP]
   101 00000064 89 87 000000B8                  	MOV	DWORD [184+EDI],EAX
   102 0000006A 59                              	POP	ECX
   103 0000006B C7 45 D8 00000008               	MOV	DWORD [-40+EBP],8
   104 00000072 C7 45 DC 0000001C               	MOV	DWORD [-36+EBP],28
   105 00000079 C7 45 E0 FFFFFFFF               	MOV	DWORD [-32+EBP],-1
   106 00000080 5E                              	POP	ESI
   107 00000081 74 21                           	JE	L3
   108 00000083 E8 [00000000]                   	CALL	_timer_alloc
   109 00000088 8D 57 10                        	LEA	EDX,DWORD [16+EDI]
   110 0000008B 6A 01                           	PUSH	1
   111 0000008D 52                              	PUSH	EDX
   112 0000008E 89 45 E4                        	MOV	DWORD [-28+EBP],EAX
   113 00000091 50                              	PUSH	EAX
   114 00000092 E8 [00000000]                   	CALL	_timer_init
   115 00000097 6A 32                           	PUSH	50
   116 00000099 FF 75 E4                        	PUSH	DWORD [-28+EBP]
   117 0000009C E8 [00000000]                   	CALL	_timer_settime
   118 000000A1 83 C4 14                        	ADD	ESP,20
   119 000000A4                                 L3:
   120 000000A4 68 00100200                     	PUSH	1049088
   121 000000A9 BE 00000007                     	MOV	ESI,7
   122 000000AE FF B5 FFFFFF00                  	PUSH	DWORD [-256+EBP]
   123 000000B4 E8 [00000000]                   	CALL	_file_readfat
   124 000000B9 58                              	POP	EAX
   125 000000BA 5A                              	POP	EDX
   126 000000BB 31 C0                           	XOR	EAX,EAX
   127 000000BD                                 L8:
   128 000000BD C7 84 05 FFFFFF74 00000000      	MOV	DWORD [-140+EBP+EAX*1],0
   129 000000C8 83 C0 0C                        	ADD	EAX,12
   130 000000CB 4E                              	DEC	ESI
   131 000000CC 79 EF                           	JNS	L8
   132 000000CE 8D 85 FFFFFF74                  	LEA	EAX,DWORD [-140+EBP]
   133 000000D4 8B 95 FFFFFF00                  	MOV	EDX,DWORD [-256+EBP]
   134 000000DA 8B 8D FFFFFEF8                  	MOV	ECX,DWORD [-264+EBP]
   135 000000E0 89 87 000000B0                  	MOV	DWORD [176+EDI],EAX
   136 000000E6 89 97 000000B4                  	MOV	DWORD [180+EDI],EDX
   137 000000EC 80 B9 00001000 FF               	CMP	BYTE [4096+ECX],-1
   138 000000F3 0F 84 000002B7                  	JE	L9
   139 000000F9 C6 87 000000BC 03               	MOV	BYTE [188+EDI],3
   140 00000100                                 L10:
   141 00000100 C6 87 000000BD 00               	MOV	BYTE [189+EDI],0
   142 00000107 8B 45 EC                        	MOV	EAX,DWORD [-20+EBP]
   143 0000010A 83 F8 01                        	CMP	EAX,1
   144 0000010D 0F 84 0000028F                  	JE	L42
   145 00000113 85 C0                           	TEST	EAX,EAX
   146 00000115 75 0A                           	JNE	L12
   147 00000117 8D 45 D4                        	LEA	EAX,DWORD [-44+EBP]
   148 0000011A 50                              	PUSH	EAX
   149 0000011B E8 00001779                     	CALL	_cmd_setlog
   150 00000120                                 L40:
   151 00000120 58                              	POP	EAX
   152 00000121                                 L12:
   153 00000121 8D 5D D4                        	LEA	EBX,DWORD [-44+EBP]
   154 00000124 53                              	PUSH	EBX
   155 00000125 E8 00000501                     	CALL	_cons_putdir
   156 0000012A 6A 01                           	PUSH	1
   157 0000012C 6A 3E                           	PUSH	62
   158 0000012E 53                              	PUSH	EBX
   159 0000012F 89 85 FFFFFEFC                  	MOV	DWORD [-260+EBP],EAX
   160 00000135 E8 00000282                     	CALL	_cons_putchar
   161 0000013A 83 C4 10                        	ADD	ESP,16
   162 0000013D                                 L14:
   163 0000013D 8D 5F 10                        	LEA	EBX,DWORD [16+EDI]
   164 00000140 E8 [00000000]                   	CALL	_io_cli
   165 00000145 53                              	PUSH	EBX
   166 00000146 E8 [00000000]                   	CALL	_fifo32_status
   167 0000014B 5E                              	POP	ESI
   168 0000014C 85 C0                           	TEST	EAX,EAX
   169 0000014E 0F 84 0000023D                  	JE	L43
   170 00000154 53                              	PUSH	EBX
   171 00000155 E8 [00000000]                   	CALL	_fifo32_get
   172 0000015A 89 C6                           	MOV	ESI,EAX
   173 0000015C E8 [00000000]                   	CALL	_io_sti
   174 00000161 59                              	POP	ECX
   175 00000162 83 FE 01                        	CMP	ESI,1
   176 00000165 0F 8E 000001CF                  	JLE	L44
   177 0000016B                                 L19:
   178 0000016B 83 FE 02                        	CMP	ESI,2
   179 0000016E 0F 84 000001BA                  	JE	L45
   180 00000174                                 L24:
   181 00000174 83 FE 03                        	CMP	ESI,3
   182 00000177 0F 84 0000017F                  	JE	L46
   183 0000017D                                 L25:
   184 0000017D 83 FE 04                        	CMP	ESI,4
   185 00000180 0F 84 00000160                  	JE	L47
   186 00000186                                 L27:
   187 00000186 8D 9E FFFFFF00                  	LEA	EBX,DWORD [-256+ESI]
   188 0000018C 89 9D FFFFFEF4                  	MOV	DWORD [-268+EBP],EBX
   189 00000192 81 FB 000000FF                  	CMP	EBX,255
   190 00000198 77 54                           	JA	L28
   191 0000019A 81 FE 00000108                  	CMP	ESI,264
   192 000001A0 0F 84 00000114                  	JE	L48
   193 000001A6 81 FE 0000010A                  	CMP	ESI,266
   194 000001AC 0F 84 0000008F                  	JE	L49
   195 000001B2 8B 4D D8                        	MOV	ECX,DWORD [-40+EBP]
   196 000001B5 81 F9 000000EF                  	CMP	ECX,239
   197 000001BB 7F 31                           	JG	L28
   198 000001BD 89 C8                           	MOV	EAX,ECX
   199 000001BF BA 00000008                     	MOV	EDX,8
   200 000001C4 89 D3                           	MOV	EBX,EDX
   201 000001C6 6A 01                           	PUSH	1
   202 000001C8 99                              	CDQ
   203 000001C9 F7 FB                           	IDIV	EBX
   204 000001CB 89 C1                           	MOV	ECX,EAX
   205 000001CD 89 F0                           	MOV	EAX,ESI
   206 000001CF 2B 8D FFFFFEFC                  	SUB	ECX,DWORD [-260+EBP]
   207 000001D5 88 84 0D FFFFFF02               	MOV	BYTE [-254+EBP+ECX*1],AL
   208 000001DC 8D 45 D4                        	LEA	EAX,DWORD [-44+EBP]
   209 000001DF FF B5 FFFFFEF4                  	PUSH	DWORD [-268+EBP]
   210 000001E5 50                              	PUSH	EAX
   211 000001E6 E8 000001D1                     	CALL	_cons_putchar
   212 000001EB                                 L41:
   213 000001EB 83 C4 0C                        	ADD	ESP,12
   214 000001EE                                 L28:
   215 000001EE 8B 5D D4                        	MOV	EBX,DWORD [-44+EBP]
   216 000001F1 85 DB                           	TEST	EBX,EBX
   217 000001F3 0F 84 FFFFFF44                  	JE	L14
   218 000001F9 83 7D E0 00                     	CMP	DWORD [-32+EBP],0
   219 000001FD 78 22                           	JS	L37
   220 000001FF 8B 4D DC                        	MOV	ECX,DWORD [-36+EBP]
   221 00000202 8B 55 D8                        	MOV	EDX,DWORD [-40+EBP]
   222 00000205 8D 41 0F                        	LEA	EAX,DWORD [15+ECX]
   223 00000208 50                              	PUSH	EAX
   224 00000209 8D 42 07                        	LEA	EAX,DWORD [7+EDX]
   225 0000020C 50                              	PUSH	EAX
   226 0000020D 51                              	PUSH	ECX
   227 0000020E 52                              	PUSH	EDX
   228 0000020F 0F B6 45 E0                     	MOVZX	EAX,BYTE [-32+EBP]
   229 00000213 50                              	PUSH	EAX
   230 00000214 FF 73 04                        	PUSH	DWORD [4+EBX]
   231 00000217 FF 33                           	PUSH	DWORD [EBX]
   232 00000219 E8 [00000000]                   	CALL	_boxfill8
   233 0000021E 83 C4 1C                        	ADD	ESP,28
   234 00000221                                 L37:
   235 00000221 8B 4D DC                        	MOV	ECX,DWORD [-36+EBP]
   236 00000224 8B 55 D8                        	MOV	EDX,DWORD [-40+EBP]
   237 00000227 8D 41 10                        	LEA	EAX,DWORD [16+ECX]
   238 0000022A 50                              	PUSH	EAX
   239 0000022B 8D 42 08                        	LEA	EAX,DWORD [8+EDX]
   240 0000022E 50                              	PUSH	EAX
   241 0000022F 51                              	PUSH	ECX
   242 00000230 52                              	PUSH	EDX
   243 00000231 FF 75 D4                        	PUSH	DWORD [-44+EBP]
   244 00000234 E8 [00000000]                   	CALL	_sheet_refresh
   245 00000239 83 C4 14                        	ADD	ESP,20
   246 0000023C E9 FFFFFEFC                     	JMP	L14
   247 00000241                                 L49:
   248 00000241 6A 00                           	PUSH	0
   249 00000243 8D 5D D4                        	LEA	EBX,DWORD [-44+EBP]
   250 00000246 6A 20                           	PUSH	32
   251 00000248 53                              	PUSH	EBX
   252 00000249 E8 0000016E                     	CALL	_cons_putchar
   253 0000024E 53                              	PUSH	EBX
   254 0000024F 8B 45 D8                        	MOV	EAX,DWORD [-40+EBP]
   255 00000252 BA 00000008                     	MOV	EDX,8
   256 00000257 89 D1                           	MOV	ECX,EDX
   257 00000259 99                              	CDQ
   258 0000025A F7 F9                           	IDIV	ECX
   259 0000025C 2B 85 FFFFFEFC                  	SUB	EAX,DWORD [-260+EBP]
   260 00000262 C6 84 05 FFFFFF02 00            	MOV	BYTE [-254+EBP+EAX*1],0
   261 0000026A E8 00000208                     	CALL	_cons_newline
   262 0000026F 8D 85 FFFFFF04                  	LEA	EAX,DWORD [-252+EBP]
   263 00000275 FF 75 0C                        	PUSH	DWORD [12+EBP]
   264 00000278 FF B5 FFFFFF00                  	PUSH	DWORD [-256+EBP]
   265 0000027E 53                              	PUSH	EBX
   266 0000027F 50                              	PUSH	EAX
   267 00000280 E8 0000048D                     	CALL	_cons_runcmd
   268 00000285 83 C4 20                        	ADD	ESP,32
   269 00000288 83 7D D4 00                     	CMP	DWORD [-44+EBP],0
   270 0000028C 75 0E                           	JNE	L33
   271 0000028E FF B5 FFFFFF00                  	PUSH	DWORD [-256+EBP]
   272 00000294 53                              	PUSH	EBX
   273 00000295 E8 00001F62                     	CALL	_cmd_exit
   274 0000029A 58                              	POP	EAX
   275 0000029B 5A                              	POP	EDX
   276 0000029C                                 L33:
   277 0000029C 53                              	PUSH	EBX
   278 0000029D E8 00000389                     	CALL	_cons_putdir
   279 000002A2 6A 01                           	PUSH	1
   280 000002A4 6A 3E                           	PUSH	62
   281 000002A6 53                              	PUSH	EBX
   282 000002A7 89 85 FFFFFEFC                  	MOV	DWORD [-260+EBP],EAX
   283 000002AD E8 0000010A                     	CALL	_cons_putchar
   284 000002B2 83 C4 10                        	ADD	ESP,16
   285 000002B5 E9 FFFFFF34                     	JMP	L28
   286 000002BA                                 L48:
   287 000002BA 8B 95 FFFFFEFC                  	MOV	EDX,DWORD [-260+EBP]
   288 000002C0 8D 04 D5 00000010               	LEA	EAX,DWORD [16+EDX*8]
   289 000002C7 39 45 D8                        	CMP	DWORD [-40+EBP],EAX
   290 000002CA 0F 8E FFFFFF1E                  	JLE	L28
   291 000002D0 6A 00                           	PUSH	0
   292 000002D2 8D 45 D4                        	LEA	EAX,DWORD [-44+EBP]
   293 000002D5 6A 20                           	PUSH	32
   294 000002D7 50                              	PUSH	EAX
   295 000002D8 E8 000000DF                     	CALL	_cons_putchar
   296 000002DD 83 6D D8 08                     	SUB	DWORD [-40+EBP],8
   297 000002E1 E9 FFFFFF05                     	JMP	L41
   298 000002E6                                 L47:
   299 000002E6 FF B5 FFFFFF00                  	PUSH	DWORD [-256+EBP]
   300 000002EC 8D 45 D4                        	LEA	EAX,DWORD [-44+EBP]
   301 000002EF 50                              	PUSH	EAX
   302 000002F0 E8 00001F07                     	CALL	_cmd_exit
   303 000002F5 59                              	POP	ECX
   304 000002F6 5B                              	POP	EBX
   305 000002F7 E9 FFFFFE8A                     	JMP	L27
   306 000002FC                                 L46:
   307 000002FC 8B 5D D4                        	MOV	EBX,DWORD [-44+EBP]
   308 000002FF 85 DB                           	TEST	EBX,EBX
   309 00000301 74 1F                           	JE	L26
   310 00000303 8B 4D DC                        	MOV	ECX,DWORD [-36+EBP]
   311 00000306 8B 55 D8                        	MOV	EDX,DWORD [-40+EBP]
   312 00000309 8D 41 0F                        	LEA	EAX,DWORD [15+ECX]
   313 0000030C 50                              	PUSH	EAX
   314 0000030D 8D 42 07                        	LEA	EAX,DWORD [7+EDX]
   315 00000310 50                              	PUSH	EAX
   316 00000311 51                              	PUSH	ECX
   317 00000312 52                              	PUSH	EDX
   318 00000313 6A 00                           	PUSH	0
   319 00000315 FF 73 04                        	PUSH	DWORD [4+EBX]
   320 00000318 FF 33                           	PUSH	DWORD [EBX]
   321 0000031A E8 [00000000]                   	CALL	_boxfill8
   322 0000031F 83 C4 1C                        	ADD	ESP,28
   323 00000322                                 L26:
   324 00000322 C7 45 E0 FFFFFFFF               	MOV	DWORD [-32+EBP],-1
   325 00000329 E9 FFFFFE4F                     	JMP	L25
   326 0000032E                                 L45:
   327 0000032E C7 45 E0 00000007               	MOV	DWORD [-32+EBP],7
   328 00000335 E9 FFFFFE3A                     	JMP	L24
   329 0000033A                                 L44:
   330 0000033A 83 7D D4 00                     	CMP	DWORD [-44+EBP],0
   331 0000033E 0F 84 FFFFFE27                  	JE	L19
   332 00000344 85 F6                           	TEST	ESI,ESI
   333 00000346 74 2C                           	JE	L20
   334 00000348 6A 00                           	PUSH	0
   335 0000034A 53                              	PUSH	EBX
   336 0000034B FF 75 E4                        	PUSH	DWORD [-28+EBP]
   337 0000034E E8 [00000000]                   	CALL	_timer_init
   338 00000353 83 C4 0C                        	ADD	ESP,12
   339 00000356 83 7D E0 00                     	CMP	DWORD [-32+EBP],0
   340 0000035A 78 07                           	JS	L22
   341 0000035C C7 45 E0 00000007               	MOV	DWORD [-32+EBP],7
   342 00000363                                 L22:
   343 00000363 6A 32                           	PUSH	50
   344 00000365 FF 75 E4                        	PUSH	DWORD [-28+EBP]
   345 00000368 E8 [00000000]                   	CALL	_timer_settime
   346 0000036D 58                              	POP	EAX
   347 0000036E 5A                              	POP	EDX
   348 0000036F E9 FFFFFDF7                     	JMP	L19
   349 00000374                                 L20:
   350 00000374 6A 01                           	PUSH	1
   351 00000376 53                              	PUSH	EBX
   352 00000377 FF 75 E4                        	PUSH	DWORD [-28+EBP]
   353 0000037A E8 [00000000]                   	CALL	_timer_init
   354 0000037F 83 C4 0C                        	ADD	ESP,12
   355 00000382 83 7D E0 00                     	CMP	DWORD [-32+EBP],0
   356 00000386 78 DB                           	JS	L22
   357 00000388 C7 45 E0 00000000               	MOV	DWORD [-32+EBP],0
   358 0000038F EB D2                           	JMP	L22
   359 00000391                                 L43:
   360 00000391 57                              	PUSH	EDI
   361 00000392 E8 [00000000]                   	CALL	_task_sleep
   362 00000397 E8 [00000000]                   	CALL	_io_sti
   363 0000039C 5B                              	POP	EBX
   364 0000039D E9 FFFFFD9B                     	JMP	L14
   365 000003A2                                 L42:
   366 000003A2 8D 45 D4                        	LEA	EAX,DWORD [-44+EBP]
   367 000003A5 50                              	PUSH	EAX
   368 000003A6 E8 00001AF3                     	CALL	_cmd_mkfs
   369 000003AB E9 FFFFFD70                     	JMP	L40
   370 000003B0                                 L9:
   371 000003B0 C6 87 000000BC 00               	MOV	BYTE [188+EDI],0
   372 000003B7 E9 FFFFFD44                     	JMP	L10
   373                                          [SECTION .data]
   374 00000008                                 LC0:
   375 00000008 20 00                           	DB	" ",0x00
   376                                          [SECTION .text]
   377 000003BC                                 	GLOBAL	_cons_putchar
   378 000003BC                                 _cons_putchar:
   379 000003BC 55                              	PUSH	EBP
   380 000003BD 89 E5                           	MOV	EBP,ESP
   381 000003BF 53                              	PUSH	EBX
   382 000003C0 50                              	PUSH	EAX
   383 000003C1 8B 45 0C                        	MOV	EAX,DWORD [12+EBP]
   384 000003C4 8A 55 10                        	MOV	DL,BYTE [16+EBP]
   385 000003C7 8B 5D 08                        	MOV	EBX,DWORD [8+EBP]
   386 000003CA 88 55 F9                        	MOV	BYTE [-7+EBP],DL
   387 000003CD 88 45 FA                        	MOV	BYTE [-6+EBP],AL
   388 000003D0 3C 09                           	CMP	AL,9
   389 000003D2 C6 45 FB 00                     	MOV	BYTE [-5+EBP],0
   390 000003D6 74 52                           	JE	L52
   391 000003D8 3C 0A                           	CMP	AL,10
   392 000003DA 74 2A                           	JE	L66
   393 000003DC 3C 0D                           	CMP	AL,13
   394 000003DE 74 21                           	JE	L50
   395 000003E0 8B 13                           	MOV	EDX,DWORD [EBX]
   396 000003E2 85 D2                           	TEST	EDX,EDX
   397 000003E4 75 29                           	JNE	L67
   398 000003E6                                 L63:
   399 000003E6 80 7D F9 00                     	CMP	BYTE [-7+EBP],0
   400 000003EA 74 15                           	JE	L50
   401 000003EC 8B 43 04                        	MOV	EAX,DWORD [4+EBX]
   402 000003EF 8B 13                           	MOV	EDX,DWORD [EBX]
   403 000003F1 83 C0 08                        	ADD	EAX,8
   404 000003F4 89 43 04                        	MOV	DWORD [4+EBX],EAX
   405 000003F7 8B 52 04                        	MOV	EDX,DWORD [4+EDX]
   406 000003FA 83 EA 08                        	SUB	EDX,8
   407 000003FD 39 D0                           	CMP	EAX,EDX
   408 000003FF 74 05                           	JE	L66
   409 00000401                                 L50:
   410 00000401 8B 5D FC                        	MOV	EBX,DWORD [-4+EBP]
   411 00000404 C9                              	LEAVE
   412 00000405 C3                              	RET
   413 00000406                                 L66:
   414 00000406 53                              	PUSH	EBX
   415 00000407 E8 0000006B                     	CALL	_cons_newline
   416 0000040C 58                              	POP	EAX
   417 0000040D EB F2                           	JMP	L50
   418 0000040F                                 L67:
   419 0000040F 6A 01                           	PUSH	1
   420 00000411 8D 45 FA                        	LEA	EAX,DWORD [-6+EBP]
   421 00000414 50                              	PUSH	EAX
   422 00000415 6A 00                           	PUSH	0
   423 00000417 6A 07                           	PUSH	7
   424 00000419 FF 73 08                        	PUSH	DWORD [8+EBX]
   425 0000041C FF 73 04                        	PUSH	DWORD [4+EBX]
   426 0000041F 52                              	PUSH	EDX
   427 00000420 E8 [00000000]                   	CALL	_putfonts8_asc_sht
   428 00000425 83 C4 1C                        	ADD	ESP,28
   429 00000428 EB BC                           	JMP	L63
   430 0000042A                                 L52:
   431 0000042A 8B 03                           	MOV	EAX,DWORD [EBX]
   432 0000042C 85 C0                           	TEST	EAX,EAX
   433 0000042E 75 2B                           	JNE	L68
   434 00000430                                 L55:
   435 00000430 8B 43 04                        	MOV	EAX,DWORD [4+EBX]
   436 00000433 8B 13                           	MOV	EDX,DWORD [EBX]
   437 00000435 83 C0 08                        	ADD	EAX,8
   438 00000438 89 43 04                        	MOV	DWORD [4+EBX],EAX
   439 0000043B 8B 52 04                        	MOV	EDX,DWORD [4+EDX]
   440 0000043E 83 EA 08                        	SUB	EDX,8
   441 00000441 39 D0                           	CMP	EAX,EDX
   442 00000443 74 0D                           	JE	L69
   443 00000445                                 L56:
   444 00000445 8B 43 04                        	MOV	EAX,DWORD [4+EBX]
   445 00000448 83 E8 08                        	SUB	EAX,8
   446 0000044B 83 E0 1F                        	AND	EAX,31
   447 0000044E 75 DA                           	JNE	L52
   448 00000450 EB AF                           	JMP	L50
   449 00000452                                 L69:
   450 00000452 53                              	PUSH	EBX
   451 00000453 E8 0000001F                     	CALL	_cons_newline
   452 00000458 58                              	POP	EAX
   453 00000459 EB EA                           	JMP	L56
   454 0000045B                                 L68:
   455 0000045B 6A 01                           	PUSH	1
   456 0000045D 68 [00000008]                   	PUSH	LC0
   457 00000462 6A 00                           	PUSH	0
   458 00000464 6A 07                           	PUSH	7
   459 00000466 FF 73 08                        	PUSH	DWORD [8+EBX]
   460 00000469 FF 73 04                        	PUSH	DWORD [4+EBX]
   461 0000046C 50                              	PUSH	EAX
   462 0000046D E8 [00000000]                   	CALL	_putfonts8_asc_sht
   463 00000472 83 C4 1C                        	ADD	ESP,28
   464 00000475 EB B9                           	JMP	L55
   465 00000477                                 	GLOBAL	_cons_newline
   466 00000477                                 _cons_newline:
   467 00000477 55                              	PUSH	EBP
   468 00000478 89 E5                           	MOV	EBP,ESP
   469 0000047A 57                              	PUSH	EDI
   470 0000047B 56                              	PUSH	ESI
   471 0000047C 53                              	PUSH	EBX
   472 0000047D 83 EC 14                        	SUB	ESP,20
   473 00000480 8B 45 08                        	MOV	EAX,DWORD [8+EBP]
   474 00000483 8B 00                           	MOV	EAX,DWORD [EAX]
   475 00000485 89 45 E8                        	MOV	DWORD [-24+EBP],EAX
   476 00000488 8B 58 08                        	MOV	EBX,DWORD [8+EAX]
   477 0000048B 8B 50 04                        	MOV	EDX,DWORD [4+EAX]
   478 0000048E 83 EA 10                        	SUB	EDX,16
   479 00000491 8D 4B DB                        	LEA	ECX,DWORD [-37+EBX]
   480 00000494 89 55 F0                        	MOV	DWORD [-16+EBP],EDX
   481 00000497 89 4D EC                        	MOV	DWORD [-20+EBP],ECX
   482 0000049A E8 [00000000]                   	CALL	_task_now
   483 0000049F 8D 53 E7                        	LEA	EDX,DWORD [-25+EBX]
   484 000004A2 8B 5D 08                        	MOV	EBX,DWORD [8+EBP]
   485 000004A5 89 45 E4                        	MOV	DWORD [-28+EBP],EAX
   486 000004A8 8B 43 08                        	MOV	EAX,DWORD [8+EBX]
   487 000004AB 39 D0                           	CMP	EAX,EDX
   488 000004AD 7D 36                           	JGE	L71
   489 000004AF 83 C0 10                        	ADD	EAX,16
   490 000004B2 89 43 08                        	MOV	DWORD [8+EBX],EAX
   491 000004B5                                 L72:
   492 000004B5 8B 45 08                        	MOV	EAX,DWORD [8+EBP]
   493 000004B8 8B 55 E4                        	MOV	EDX,DWORD [-28+EBP]
   494 000004BB C7 40 04 00000008               	MOV	DWORD [4+EAX],8
   495 000004C2 80 BA 000000BC 01               	CMP	BYTE [188+EDX],1
   496 000004C9 74 08                           	JE	L103
   497 000004CB                                 L70:
   498 000004CB 8D 65 F4                        	LEA	ESP,DWORD [-12+EBP]
   499 000004CE 5B                              	POP	EBX
   500 000004CF 5E                              	POP	ESI
   501 000004D0 5F                              	POP	EDI
   502 000004D1 5D                              	POP	EBP
   503 000004D2 C3                              	RET
   504 000004D3                                 L103:
   505 000004D3 80 BA 000000BD 00               	CMP	BYTE [189+EDX],0
   506 000004DA 74 EF                           	JE	L70
   507 000004DC C7 40 04 00000010               	MOV	DWORD [4+EAX],16
   508 000004E3 EB E6                           	JMP	L70
   509 000004E5                                 L71:
   510 000004E5 83 7D E8 00                     	CMP	DWORD [-24+EBP],0
   511 000004E9 74 CA                           	JE	L72
   512 000004EB BF 0000001C                     	MOV	EDI,28
   513 000004F0 39 D7                           	CMP	EDI,EDX
   514 000004F2 7D 45                           	JGE	L96
   515 000004F4                                 L83:
   516 000004F4 8B 45 F0                        	MOV	EAX,DWORD [-16+EBP]
   517 000004F7 BE 00000008                     	MOV	ESI,8
   518 000004FC 83 C0 08                        	ADD	EAX,8
   519 000004FF 89 45 E0                        	MOV	DWORD [-32+EBP],EAX
   520 00000502 39 C6                           	CMP	ESI,EAX
   521 00000504 7D 28                           	JGE	L98
   522 00000506                                 L82:
   523 00000506 8B 55 E8                        	MOV	EDX,DWORD [-24+EBP]
   524 00000509 8B 45 E8                        	MOV	EAX,DWORD [-24+EBP]
   525 0000050C 8B 4A 04                        	MOV	ECX,DWORD [4+EDX]
   526 0000050F 8B 18                           	MOV	EBX,DWORD [EAX]
   527 00000511 8D 47 10                        	LEA	EAX,DWORD [16+EDI]
   528 00000514 89 FA                           	MOV	EDX,EDI
   529 00000516 0F AF C1                        	IMUL	EAX,ECX
   530 00000519 0F AF D1                        	IMUL	EDX,ECX
   531 0000051C 8D 04 30                        	LEA	EAX,DWORD [EAX+ESI*1]
   532 0000051F 8D 14 32                        	LEA	EDX,DWORD [EDX+ESI*1]
   533 00000522 46                              	INC	ESI
   534 00000523 8A 04 18                        	MOV	AL,BYTE [EAX+EBX*1]
   535 00000526 88 04 1A                        	MOV	BYTE [EDX+EBX*1],AL
   536 00000529 3B 75 E0                        	CMP	ESI,DWORD [-32+EBP]
   537 0000052C 7C D8                           	JL	L82
   538 0000052E                                 L98:
   539 0000052E 8B 45 EC                        	MOV	EAX,DWORD [-20+EBP]
   540 00000531 47                              	INC	EDI
   541 00000532 83 C0 0C                        	ADD	EAX,12
   542 00000535 39 C7                           	CMP	EDI,EAX
   543 00000537 7C BB                           	JL	L83
   544 00000539                                 L96:
   545 00000539 8B 7D EC                        	MOV	EDI,DWORD [-20+EBP]
   546 0000053C 8B 45 EC                        	MOV	EAX,DWORD [-20+EBP]
   547 0000053F 83 C7 0C                        	ADD	EDI,12
   548 00000542 83 C0 1C                        	ADD	EAX,28
   549 00000545 39 C7                           	CMP	EDI,EAX
   550 00000547 7D 31                           	JGE	L100
   551 00000549                                 L93:
   552 00000549 8B 4D F0                        	MOV	ECX,DWORD [-16+EBP]
   553 0000054C BE 00000008                     	MOV	ESI,8
   554 00000551 83 C1 08                        	ADD	ECX,8
   555 00000554 39 CE                           	CMP	ESI,ECX
   556 00000556 7D 17                           	JGE	L102
   557 00000558                                 L92:
   558 00000558 8B 55 E8                        	MOV	EDX,DWORD [-24+EBP]
   559 0000055B 89 F8                           	MOV	EAX,EDI
   560 0000055D 0F AF 42 04                     	IMUL	EAX,DWORD [4+EDX]
   561 00000561 8B 12                           	MOV	EDX,DWORD [EDX]
   562 00000563 8D 04 30                        	LEA	EAX,DWORD [EAX+ESI*1]
   563 00000566 46                              	INC	ESI
   564 00000567 39 CE                           	CMP	ESI,ECX
   565 00000569 C6 04 10 00                     	MOV	BYTE [EAX+EDX*1],0
   566 0000056D 7C E9                           	JL	L92
   567 0000056F                                 L102:
   568 0000056F 8B 45 EC                        	MOV	EAX,DWORD [-20+EBP]
   569 00000572 47                              	INC	EDI
   570 00000573 83 C0 1C                        	ADD	EAX,28
   571 00000576 39 C7                           	CMP	EDI,EAX
   572 00000578 7C CF                           	JL	L93
   573 0000057A                                 L100:
   574 0000057A 8B 45 EC                        	MOV	EAX,DWORD [-20+EBP]
   575 0000057D 83 C0 1C                        	ADD	EAX,28
   576 00000580 50                              	PUSH	EAX
   577 00000581 8B 45 F0                        	MOV	EAX,DWORD [-16+EBP]
   578 00000584 83 C0 08                        	ADD	EAX,8
   579 00000587 50                              	PUSH	EAX
   580 00000588 6A 1C                           	PUSH	28
   581 0000058A 6A 08                           	PUSH	8
   582 0000058C FF 75 E8                        	PUSH	DWORD [-24+EBP]
   583 0000058F E8 [00000000]                   	CALL	_sheet_refresh
   584 00000594 83 C4 14                        	ADD	ESP,20
   585 00000597 E9 FFFFFF19                     	JMP	L72
   586 0000059C                                 	GLOBAL	_cons_putstr
   587 0000059C                                 _cons_putstr:
   588 0000059C 55                              	PUSH	EBP
   589 0000059D 89 E5                           	MOV	EBP,ESP
   590 0000059F 56                              	PUSH	ESI
   591 000005A0 53                              	PUSH	EBX
   592 000005A1 8B 5D 0C                        	MOV	EBX,DWORD [12+EBP]
   593 000005A4 8B 75 08                        	MOV	ESI,DWORD [8+EBP]
   594 000005A7 80 3B 00                        	CMP	BYTE [EBX],0
   595 000005AA 75 07                           	JNE	L109
   596 000005AC                                 L111:
   597 000005AC 8D 65 F8                        	LEA	ESP,DWORD [-8+EBP]
   598 000005AF 5B                              	POP	EBX
   599 000005B0 5E                              	POP	ESI
   600 000005B1 5D                              	POP	EBP
   601 000005B2 C3                              	RET
   602 000005B3                                 L109:
   603 000005B3 6A 01                           	PUSH	1
   604 000005B5 0F BE 03                        	MOVSX	EAX,BYTE [EBX]
   605 000005B8 50                              	PUSH	EAX
   606 000005B9 43                              	INC	EBX
   607 000005BA 56                              	PUSH	ESI
   608 000005BB E8 FFFFFDFC                     	CALL	_cons_putchar
   609 000005C0 83 C4 0C                        	ADD	ESP,12
   610 000005C3 80 3B 00                        	CMP	BYTE [EBX],0
   611 000005C6 75 EB                           	JNE	L109
   612 000005C8 EB E2                           	JMP	L111
   613 000005CA                                 	GLOBAL	_cons_putstr0
   614 000005CA                                 _cons_putstr0:
   615 000005CA 55                              	PUSH	EBP
   616 000005CB 89 E5                           	MOV	EBP,ESP
   617 000005CD 56                              	PUSH	ESI
   618 000005CE 53                              	PUSH	EBX
   619 000005CF 8B 5D 0C                        	MOV	EBX,DWORD [12+EBP]
   620 000005D2 8B 75 08                        	MOV	ESI,DWORD [8+EBP]
   621 000005D5 80 3B 00                        	CMP	BYTE [EBX],0
   622 000005D8 75 07                           	JNE	L117
   623 000005DA                                 L119:
   624 000005DA 8D 65 F8                        	LEA	ESP,DWORD [-8+EBP]
   625 000005DD 5B                              	POP	EBX
   626 000005DE 5E                              	POP	ESI
   627 000005DF 5D                              	POP	EBP
   628 000005E0 C3                              	RET
   629 000005E1                                 L117:
   630 000005E1 6A 01                           	PUSH	1
   631 000005E3 0F BE 03                        	MOVSX	EAX,BYTE [EBX]
   632 000005E6 50                              	PUSH	EAX
   633 000005E7 43                              	INC	EBX
   634 000005E8 56                              	PUSH	ESI
   635 000005E9 E8 FFFFFDCE                     	CALL	_cons_putchar
   636 000005EE 83 C4 0C                        	ADD	ESP,12
   637 000005F1 80 3B 00                        	CMP	BYTE [EBX],0
   638 000005F4 75 EB                           	JNE	L117
   639 000005F6 EB E2                           	JMP	L119
   640 000005F8                                 	GLOBAL	_cons_putstr1
   641 000005F8                                 _cons_putstr1:
   642 000005F8 55                              	PUSH	EBP
   643 000005F9 89 E5                           	MOV	EBP,ESP
   644 000005FB 57                              	PUSH	EDI
   645 000005FC 56                              	PUSH	ESI
   646 000005FD 53                              	PUSH	EBX
   647 000005FE 8B 75 10                        	MOV	ESI,DWORD [16+EBP]
   648 00000601 31 DB                           	XOR	EBX,EBX
   649 00000603 8B 7D 0C                        	MOV	EDI,DWORD [12+EBP]
   650 00000606 39 F3                           	CMP	EBX,ESI
   651 00000608 7C 08                           	JL	L125
   652 0000060A                                 L127:
   653 0000060A 8D 65 F4                        	LEA	ESP,DWORD [-12+EBP]
   654 0000060D 5B                              	POP	EBX
   655 0000060E 5E                              	POP	ESI
   656 0000060F 5F                              	POP	EDI
   657 00000610 5D                              	POP	EBP
   658 00000611 C3                              	RET
   659 00000612                                 L125:
   660 00000612 6A 01                           	PUSH	1
   661 00000614 0F BE 04 3B                     	MOVSX	EAX,BYTE [EBX+EDI*1]
   662 00000618 50                              	PUSH	EAX
   663 00000619 43                              	INC	EBX
   664 0000061A FF 75 08                        	PUSH	DWORD [8+EBP]
   665 0000061D E8 FFFFFD9A                     	CALL	_cons_putchar
   666 00000622 83 C4 0C                        	ADD	ESP,12
   667 00000625 39 F3                           	CMP	EBX,ESI
   668 00000627 7C E9                           	JL	L125
   669 00000629 EB DF                           	JMP	L127
   670 0000062B                                 	GLOBAL	_cons_putdir
   671 0000062B                                 _cons_putdir:
   672 0000062B 55                              	PUSH	EBP
   673 0000062C 89 E5                           	MOV	EBP,ESP
   674 0000062E 56                              	PUSH	ESI
   675 0000062F 53                              	PUSH	EBX
   676 00000630 31 DB                           	XOR	EBX,EBX
   677 00000632 83 EC 40                        	SUB	ESP,64
   678 00000635 8D 45 B8                        	LEA	EAX,DWORD [-72+EBP]
   679 00000638 8B 75 08                        	MOV	ESI,DWORD [8+EBP]
   680 0000063B FF 76 14                        	PUSH	DWORD [20+ESI]
   681 0000063E 50                              	PUSH	EAX
   682 0000063F E8 00000026                     	CALL	_get_pathname
   683 00000644 5A                              	POP	EDX
   684 00000645 31 C0                           	XOR	EAX,EAX
   685 00000647 59                              	POP	ECX
   686 00000648 80 7D B8 00                     	CMP	BYTE [-72+EBP],0
   687 0000064C 74 09                           	JE	L135
   688 0000064E                                 L133:
   689 0000064E 40                              	INC	EAX
   690 0000064F 43                              	INC	EBX
   691 00000650 80 7C 05 B8 00                  	CMP	BYTE [-72+EBP+EAX*1],0
   692 00000655 75 F7                           	JNE	L133
   693 00000657                                 L135:
   694 00000657 8D 45 B8                        	LEA	EAX,DWORD [-72+EBP]
   695 0000065A 50                              	PUSH	EAX
   696 0000065B 56                              	PUSH	ESI
   697 0000065C E8 FFFFFF3B                     	CALL	_cons_putstr
   698 00000661 8D 65 F8                        	LEA	ESP,DWORD [-8+EBP]
   699 00000664 89 D8                           	MOV	EAX,EBX
   700 00000666 5B                              	POP	EBX
   701 00000667 5E                              	POP	ESI
   702 00000668 5D                              	POP	EBP
   703 00000669 C3                              	RET
   704                                          [SECTION .data]
   705 0000000A                                 LC1:
   706 0000000A 00                              	DB	0x00
   707 0000000B                                 LC4:
   708 0000000B 2F 25 73 00                     	DB	"/%s",0x00
   709 0000000F                                 LC3:
   710 0000000F 25 73 00                        	DB	"%s",0x00
   711 00000012                                 LC2:
   712 00000012 25 73 2F 25 73 00               	DB	"%s/%s",0x00
   713                                          [SECTION .text]
   714 0000066A                                 	GLOBAL	_get_pathname
   715 0000066A                                 _get_pathname:
   716 0000066A 55                              	PUSH	EBP
   717 0000066B 89 E5                           	MOV	EBP,ESP
   718 0000066D 57                              	PUSH	EDI
   719 0000066E 56                              	PUSH	ESI
   720 0000066F 53                              	PUSH	EBX
   721 00000670 81 EC 000000B8                  	SUB	ESP,184
   722 00000676 8B 7D 0C                        	MOV	EDI,DWORD [12+EBP]
   723 00000679 68 [0000000A]                   	PUSH	LC1
   724 0000067E FF 75 08                        	PUSH	DWORD [8+EBP]
   725 00000681 E8 [00000000]                   	CALL	_sprintf
   726 00000686 58                              	POP	EAX
   727 00000687 5A                              	POP	EDX
   728 00000688 83 BF 000007D8 00               	CMP	DWORD [2008+EDI],0
   729 0000068F 75 27                           	JNE	L140
   730 00000691                                 L142:
   731 00000691 FF 75 08                        	PUSH	DWORD [8+EBP]
   732 00000694 68 [0000000B]                   	PUSH	LC4
   733 00000699 8D 5D 84                        	LEA	EBX,DWORD [-124+EBP]
   734 0000069C 53                              	PUSH	EBX
   735 0000069D E8 [00000000]                   	CALL	_sprintf
   736 000006A2 53                              	PUSH	EBX
   737 000006A3 68 [0000000F]                   	PUSH	LC3
   738 000006A8 FF 75 08                        	PUSH	DWORD [8+EBP]
   739 000006AB E8 [00000000]                   	CALL	_sprintf
   740 000006B0 8D 65 F4                        	LEA	ESP,DWORD [-12+EBP]
   741 000006B3 5B                              	POP	EBX
   742 000006B4 5E                              	POP	ESI
   743 000006B5 5F                              	POP	EDI
   744 000006B6 5D                              	POP	EBP
   745 000006B7 C3                              	RET
   746 000006B8                                 L140:
   747 000006B8 8D 87 000007D0                  	LEA	EAX,DWORD [2000+EDI]
   748 000006BE 8D B5 FFFFFF3C                  	LEA	ESI,DWORD [-196+EBP]
   749 000006C4 50                              	PUSH	EAX
   750 000006C5 8D 9D FFFFFF44                  	LEA	EBX,DWORD [-188+EBP]
   751 000006CB 56                              	PUSH	ESI
   752 000006CC E8 [00000000]                   	CALL	_sprintf
   753 000006D1 FF 75 08                        	PUSH	DWORD [8+EBP]
   754 000006D4 56                              	PUSH	ESI
   755 000006D5 68 [00000012]                   	PUSH	LC2
   756 000006DA 53                              	PUSH	EBX
   757 000006DB E8 [00000000]                   	CALL	_sprintf
   758 000006E0 8B BF 000007D8                  	MOV	EDI,DWORD [2008+EDI]
   759 000006E6 53                              	PUSH	EBX
   760 000006E7 68 [0000000F]                   	PUSH	LC3
   761 000006EC FF 75 08                        	PUSH	DWORD [8+EBP]
   762 000006EF E8 [00000000]                   	CALL	_sprintf
   763 000006F4 83 C4 24                        	ADD	ESP,36
   764 000006F7 68 [0000000A]                   	PUSH	LC1
   765 000006FC 56                              	PUSH	ESI
   766 000006FD E8 [00000000]                   	CALL	_sprintf
   767 00000702 5B                              	POP	EBX
   768 00000703 5E                              	POP	ESI
   769 00000704 83 BF 000007D8 00               	CMP	DWORD [2008+EDI],0
   770 0000070B 75 AB                           	JNE	L140
   771 0000070D E9 FFFFFF7F                     	JMP	L142
   772                                          [SECTION .data]
   773 00000018                                 LC5:
   774 00000018 63 61 74 20 00                  	DB	"cat ",0x00
   775 0000001D                                 LC6:
   776 0000001D 63 64 20 00                     	DB	"cd ",0x00
   777 00000021                                 LC7:
   778 00000021 63 6C 73 00                     	DB	"cls",0x00
   779 00000025                                 LC8:
   780 00000025 64 69 72 00                     	DB	"dir",0x00
   781 00000029                                 LC9:
   782 00000029 65 78 69 74 00                  	DB	"exit",0x00
   783 0000002E                                 LC10:
   784 0000002E 65 64 69 74 20 00               	DB	"edit ",0x00
   785 00000034                                 LC11:
   786 00000034 66 64 64 69 72 00               	DB	"fddir",0x00
   787 0000003A                                 LC12:
   788 0000003A 66 76 69 65 77 20 00            	DB	"fview ",0x00
   789 00000041                                 LC13:
   790 00000041 6C 61 6E 67 6D 6F 64 65 20 00   	DB	"langmode ",0x00
   791 0000004B                                 LC14:
   792 0000004B 6C 6F 67 00                     	DB	"log",0x00
   793 0000004F                                 LC15:
   794 0000004F 6C 6F 67 63 6C 73 00            	DB	"logcls",0x00
   795 00000056                                 LC16:
   796 00000056 6D 65 6D 00                     	DB	"mem",0x00
   797 0000005A                                 LC17:
   798 0000005A 6D 6B 66 73 00                  	DB	"mkfs",0x00
   799 0000005F                                 LC18:
   800 0000005F 6D 6B 64 69 72 20 00            	DB	"mkdir ",0x00
   801 00000066                                 LC19:
   802 00000066 6D 6B 66 69 6C 65 20 00         	DB	"mkfile ",0x00
   803 0000006E                                 LC20:
   804 0000006E 6D 65 6D 6D 61 70 00            	DB	"memmap",0x00
   805 00000075                                 LC21:
   806 00000075 6E 63 73 74 20 00               	DB	"ncst ",0x00
   807 0000007B                                 LC22:
   808 0000007B 73 74 61 72 74 20 00            	DB	"start ",0x00
   809 00000082                                 LC23:
   810 00000082 73 65 74 6C 6F 67 00            	DB	"setlog",0x00
   811 00000089                                 LC24:
   812 00000089 73 68 6F 77 20 00               	DB	"show ",0x00
   813 0000008F                                 LC25:
   814 0000008F 74 65 73 74 00                  	DB	"test",0x00
   815 00000094                                 LC26:
   816 00000094 42 61 64 20 63 6F 6D 6D 61 6E   	DB	"Bad command.",0x0A,0x0A,0x00
       0000009E 64 2E 0A 0A 00 
   817                                          [SECTION .text]
   818 00000712                                 	GLOBAL	_cons_runcmd
   819 00000712                                 _cons_runcmd:
   820 00000712 55                              	PUSH	EBP
   821 00000713 89 E5                           	MOV	EBP,ESP
   822 00000715 57                              	PUSH	EDI
   823 00000716 56                              	PUSH	ESI
   824 00000717 BF [00000018]                   	MOV	EDI,LC5
   825 0000071C 53                              	PUSH	EBX
   826 0000071D 83 EC 0C                        	SUB	ESP,12
   827 00000720 8B 45 08                        	MOV	EAX,DWORD [8+EBP]
   828 00000723 8B 4D 10                        	MOV	ECX,DWORD [16+EBP]
   829 00000726 89 45 E8                        	MOV	DWORD [-24+EBP],EAX
   830 00000729 89 4D F0                        	MOV	DWORD [-16+EBP],ECX
   831 0000072C 8B 45 14                        	MOV	EAX,DWORD [20+EBP]
   832 0000072F 8B 75 E8                        	MOV	ESI,DWORD [-24+EBP]
   833 00000732 89 45 EC                        	MOV	DWORD [-20+EBP],EAX
   834 00000735 8B 5D 0C                        	MOV	EBX,DWORD [12+EBP]
   835 00000738 B8 00000004                     	MOV	EAX,4
   836 0000073D FC                              	CLD
   837 0000073E 89 C1                           	MOV	ECX,EAX
   838 00000740 F3                              	REPE
   839 00000741 A6                              	CMPSB
   840 00000742 75 09                           	JNE	L144
   841 00000744 83 3B 00                        	CMP	DWORD [EBX],0
   842 00000747 0F 85 000003CD                  	JNE	L188
   843 0000074D                                 L144:
   844 0000074D B8 00000003                     	MOV	EAX,3
   845 00000752 8B 75 E8                        	MOV	ESI,DWORD [-24+EBP]
   846 00000755 FC                              	CLD
   847 00000756 BF [0000001D]                   	MOV	EDI,LC6
   848 0000075B 89 C1                           	MOV	ECX,EAX
   849 0000075D F3                              	REPE
   850 0000075E A6                              	CMPSB
   851 0000075F 0F 84 000003A3                  	JE	L189
   852 00000765 B8 00000004                     	MOV	EAX,4
   853 0000076A 8B 75 E8                        	MOV	ESI,DWORD [-24+EBP]
   854 0000076D FC                              	CLD
   855 0000076E BF [00000021]                   	MOV	EDI,LC7
   856 00000773 89 C1                           	MOV	ECX,EAX
   857 00000775 F3                              	REPE
   858 00000776 A6                              	CMPSB
   859 00000777 75 09                           	JNE	L148
   860 00000779 83 3B 00                        	CMP	DWORD [EBX],0
   861 0000077C 0F 85 00000377                  	JNE	L190
   862 00000782                                 L148:
   863 00000782 B8 00000004                     	MOV	EAX,4
   864 00000787 8B 75 E8                        	MOV	ESI,DWORD [-24+EBP]
   865 0000078A FC                              	CLD
   866 0000078B BF [00000025]                   	MOV	EDI,LC8
   867 00000790 89 C1                           	MOV	ECX,EAX
   868 00000792 F3                              	REPE
   869 00000793 A6                              	CMPSB
   870 00000794 75 09                           	JNE	L150
   871 00000796 83 3B 00                        	CMP	DWORD [EBX],0
   872 00000799 0F 85 0000034B                  	JNE	L191
   873 0000079F                                 L150:
   874 0000079F B8 00000005                     	MOV	EAX,5
   875 000007A4 8B 75 E8                        	MOV	ESI,DWORD [-24+EBP]
   876 000007A7 FC                              	CLD
   877 000007A8 BF [00000029]                   	MOV	EDI,LC9
   878 000007AD 89 C1                           	MOV	ECX,EAX
   879 000007AF F3                              	REPE
   880 000007B0 A6                              	CMPSB
   881 000007B1 0F 84 0000031E                  	JE	L192
   882 000007B7 B8 00000005                     	MOV	EAX,5
   883 000007BC 8B 75 E8                        	MOV	ESI,DWORD [-24+EBP]
   884 000007BF FC                              	CLD
   885 000007C0 BF [0000002E]                   	MOV	EDI,LC10
   886 000007C5 89 C1                           	MOV	ECX,EAX
   887 000007C7 F3                              	REPE
   888 000007C8 A6                              	CMPSB
   889 000007C9 75 09                           	JNE	L154
   890 000007CB 83 3B 00                        	CMP	DWORD [EBX],0
   891 000007CE 0F 85 000002EC                  	JNE	L193
   892 000007D4                                 L154:
   893 000007D4 B8 00000006                     	MOV	EAX,6
   894 000007D9 8B 75 E8                        	MOV	ESI,DWORD [-24+EBP]
   895 000007DC FC                              	CLD
   896 000007DD BF [00000034]                   	MOV	EDI,LC11
   897 000007E2 89 C1                           	MOV	ECX,EAX
   898 000007E4 F3                              	REPE
   899 000007E5 A6                              	CMPSB
   900 000007E6 75 09                           	JNE	L156
   901 000007E8 83 3B 00                        	CMP	DWORD [EBX],0
   902 000007EB 0F 85 000002C0                  	JNE	L194
   903 000007F1                                 L156:
   904 000007F1 B8 00000006                     	MOV	EAX,6
   905 000007F6 8B 75 E8                        	MOV	ESI,DWORD [-24+EBP]
   906 000007F9 FC                              	CLD
   907 000007FA BF [0000003A]                   	MOV	EDI,LC12
   908 000007FF 89 C1                           	MOV	ECX,EAX
   909 00000801 F3                              	REPE
   910 00000802 A6                              	CMPSB
   911 00000803 75 09                           	JNE	L158
   912 00000805 83 3B 00                        	CMP	DWORD [EBX],0
   913 00000808 0F 85 0000028E                  	JNE	L195
   914 0000080E                                 L158:
   915 0000080E B8 00000009                     	MOV	EAX,9
   916 00000813 8B 75 E8                        	MOV	ESI,DWORD [-24+EBP]
   917 00000816 FC                              	CLD
   918 00000817 BF [00000041]                   	MOV	EDI,LC13
   919 0000081C 89 C1                           	MOV	ECX,EAX
   920 0000081E F3                              	REPE
   921 0000081F A6                              	CMPSB
   922 00000820 0F 84 00000261                  	JE	L196
   923 00000826 B8 00000004                     	MOV	EAX,4
   924 0000082B 8B 75 E8                        	MOV	ESI,DWORD [-24+EBP]
   925 0000082E FC                              	CLD
   926 0000082F BF [0000004B]                   	MOV	EDI,LC14
   927 00000834 89 C1                           	MOV	ECX,EAX
   928 00000836 F3                              	REPE
   929 00000837 A6                              	CMPSB
   930 00000838 75 09                           	JNE	L162
   931 0000083A 83 3B 00                        	CMP	DWORD [EBX],0
   932 0000083D 0F 85 00000235                  	JNE	L197
   933 00000843                                 L162:
   934 00000843 B8 00000007                     	MOV	EAX,7
   935 00000848 8B 75 E8                        	MOV	ESI,DWORD [-24+EBP]
   936 0000084B FC                              	CLD
   937 0000084C BF [0000004F]                   	MOV	EDI,LC15
   938 00000851 89 C1                           	MOV	ECX,EAX
   939 00000853 F3                              	REPE
   940 00000854 A6                              	CMPSB
   941 00000855 75 09                           	JNE	L164
   942 00000857 83 3B 00                        	CMP	DWORD [EBX],0
   943 0000085A 0F 85 00000209                  	JNE	L198
   944 00000860                                 L164:
   945 00000860 B8 00000004                     	MOV	EAX,4
   946 00000865 8B 75 E8                        	MOV	ESI,DWORD [-24+EBP]
   947 00000868 FC                              	CLD
   948 00000869 BF [00000056]                   	MOV	EDI,LC16
   949 0000086E 89 C1                           	MOV	ECX,EAX
   950 00000870 F3                              	REPE
   951 00000871 A6                              	CMPSB
   952 00000872 75 09                           	JNE	L166
   953 00000874 83 3B 00                        	CMP	DWORD [EBX],0
   954 00000877 0F 85 000001D7                  	JNE	L199
   955 0000087D                                 L166:
   956 0000087D B8 00000005                     	MOV	EAX,5
   957 00000882 8B 75 E8                        	MOV	ESI,DWORD [-24+EBP]
   958 00000885 FC                              	CLD
   959 00000886 BF [0000005A]                   	MOV	EDI,LC17
   960 0000088B 89 C1                           	MOV	ECX,EAX
   961 0000088D F3                              	REPE
   962 0000088E A6                              	CMPSB
   963 0000088F 75 09                           	JNE	L168
   964 00000891 83 3B 00                        	CMP	DWORD [EBX],0
   965 00000894 0F 85 000001AB                  	JNE	L200
   966 0000089A                                 L168:
   967 0000089A B8 00000006                     	MOV	EAX,6
   968 0000089F 8B 75 E8                        	MOV	ESI,DWORD [-24+EBP]
   969 000008A2 FC                              	CLD
   970 000008A3 BF [0000005F]                   	MOV	EDI,LC18
   971 000008A8 89 C1                           	MOV	ECX,EAX
   972 000008AA F3                              	REPE
   973 000008AB A6                              	CMPSB
   974 000008AC 0F 84 0000017E                  	JE	L201
   975 000008B2 B8 00000007                     	MOV	EAX,7
   976 000008B7 8B 75 E8                        	MOV	ESI,DWORD [-24+EBP]
   977 000008BA FC                              	CLD
   978 000008BB BF [00000066]                   	MOV	EDI,LC19
   979 000008C0 89 C1                           	MOV	ECX,EAX
   980 000008C2 F3                              	REPE
   981 000008C3 A6                              	CMPSB
   982 000008C4 0F 84 00000151                  	JE	L202
   983 000008CA B8 00000007                     	MOV	EAX,7
   984 000008CF 8B 75 E8                        	MOV	ESI,DWORD [-24+EBP]
   985 000008D2 FC                              	CLD
   986 000008D3 BF [0000006E]                   	MOV	EDI,LC20
   987 000008D8 89 C1                           	MOV	ECX,EAX
   988 000008DA F3                              	REPE
   989 000008DB A6                              	CMPSB
   990 000008DC 75 09                           	JNE	L174
   991 000008DE 83 3B 00                        	CMP	DWORD [EBX],0
   992 000008E1 0F 85 0000011F                  	JNE	L203
   993 000008E7                                 L174:
   994 000008E7 B8 00000005                     	MOV	EAX,5
   995 000008EC 8B 75 E8                        	MOV	ESI,DWORD [-24+EBP]
   996 000008EF FC                              	CLD
   997 000008F0 BF [00000075]                   	MOV	EDI,LC21
   998 000008F5 89 C1                           	MOV	ECX,EAX
   999 000008F7 F3                              	REPE
  1000 000008F8 A6                              	CMPSB
  1001 000008F9 0F 84 000000EC                  	JE	L204
  1002 000008FF B8 00000006                     	MOV	EAX,6
  1003 00000904 8B 75 E8                        	MOV	ESI,DWORD [-24+EBP]
  1004 00000907 FC                              	CLD
  1005 00000908 BF [0000007B]                   	MOV	EDI,LC22
  1006 0000090D 89 C1                           	MOV	ECX,EAX
  1007 0000090F F3                              	REPE
  1008 00000910 A6                              	CMPSB
  1009 00000911 0F 84 000000B9                  	JE	L205
  1010 00000917 B8 00000007                     	MOV	EAX,7
  1011 0000091C 8B 75 E8                        	MOV	ESI,DWORD [-24+EBP]
  1012 0000091F FC                              	CLD
  1013 00000920 BF [00000082]                   	MOV	EDI,LC23
  1014 00000925 89 C1                           	MOV	ECX,EAX
  1015 00000927 F3                              	REPE
  1016 00000928 A6                              	CMPSB
  1017 00000929 75 09                           	JNE	L180
  1018 0000092B 83 3B 00                        	CMP	DWORD [EBX],0
  1019 0000092E 0F 85 0000008D                  	JNE	L206
  1020 00000934                                 L180:
  1021 00000934 B8 00000005                     	MOV	EAX,5
  1022 00000939 8B 75 E8                        	MOV	ESI,DWORD [-24+EBP]
  1023 0000093C FC                              	CLD
  1024 0000093D BF [00000089]                   	MOV	EDI,LC24
  1025 00000942 89 C1                           	MOV	ECX,EAX
  1026 00000944 F3                              	REPE
  1027 00000945 A6                              	CMPSB
  1028 00000946 75 05                           	JNE	L182
  1029 00000948 83 3B 00                        	CMP	DWORD [EBX],0
  1030 0000094B 75 5F                           	JNE	L207
  1031 0000094D                                 L182:
  1032 0000094D B8 00000005                     	MOV	EAX,5
  1033 00000952 8B 75 E8                        	MOV	ESI,DWORD [-24+EBP]
  1034 00000955 FC                              	CLD
  1035 00000956 BF [0000008F]                   	MOV	EDI,LC25
  1036 0000095B 89 C1                           	MOV	ECX,EAX
  1037 0000095D F3                              	REPE
  1038 0000095E A6                              	CMPSB
  1039 0000095F 75 05                           	JNE	L184
  1040 00000961 83 3B 00                        	CMP	DWORD [EBX],0
  1041 00000964 75 37                           	JNE	L208
  1042 00000966                                 L184:
  1043 00000966 8B 45 E8                        	MOV	EAX,DWORD [-24+EBP]
  1044 00000969 80 38 00                        	CMP	BYTE [EAX],0
  1045 0000096C 75 08                           	JNE	L209
  1046 0000096E                                 L143:
  1047 0000096E 8D 65 F4                        	LEA	ESP,DWORD [-12+EBP]
  1048 00000971 5B                              	POP	EBX
  1049 00000972 5E                              	POP	ESI
  1050 00000973 5F                              	POP	EDI
  1051 00000974 5D                              	POP	EBP
  1052 00000975 C3                              	RET
  1053 00000976                                 L209:
  1054 00000976 50                              	PUSH	EAX
  1055 00000977 FF 75 F0                        	PUSH	DWORD [-16+EBP]
  1056 0000097A 53                              	PUSH	EBX
  1057 0000097B E8 00001A40                     	CALL	_cmd_app
  1058 00000980 83 C4 0C                        	ADD	ESP,12
  1059 00000983 85 C0                           	TEST	EAX,EAX
  1060 00000985 75 E7                           	JNE	L143
  1061 00000987 C7 45 0C [00000094]             	MOV	DWORD [12+EBP],LC26
  1062 0000098E 89 5D 08                        	MOV	DWORD [8+EBP],EBX
  1063 00000991 8D 65 F4                        	LEA	ESP,DWORD [-12+EBP]
  1064 00000994 5B                              	POP	EBX
  1065 00000995 5E                              	POP	ESI
  1066 00000996 5F                              	POP	EDI
  1067 00000997 5D                              	POP	EBP
  1068 00000998 E9 FFFFFC2D                     	JMP	_cons_putstr0
  1069 0000099D                                 L208:
  1070 0000099D 89 5D 08                        	MOV	DWORD [8+EBP],EBX
  1071 000009A0 8D 65 F4                        	LEA	ESP,DWORD [-12+EBP]
  1072 000009A3 5B                              	POP	EBX
  1073 000009A4 5E                              	POP	ESI
  1074 000009A5 5F                              	POP	EDI
  1075 000009A6 5D                              	POP	EBP
  1076 000009A7 E9 000011F3                     	JMP	_cmd_test
  1077 000009AC                                 L207:
  1078 000009AC 8B 45 E8                        	MOV	EAX,DWORD [-24+EBP]
  1079 000009AF 89 5D 08                        	MOV	DWORD [8+EBP],EBX
  1080 000009B2 89 45 0C                        	MOV	DWORD [12+EBP],EAX
  1081 000009B5 8D 65 F4                        	LEA	ESP,DWORD [-12+EBP]
  1082 000009B8 5B                              	POP	EBX
  1083 000009B9 5E                              	POP	ESI
  1084 000009BA 5F                              	POP	EDI
  1085 000009BB 5D                              	POP	EBP
  1086 000009BC E9 00001237                     	JMP	_cmd_show
  1087 000009C1                                 L206:
  1088 000009C1 89 5D 08                        	MOV	DWORD [8+EBP],EBX
  1089 000009C4 8D 65 F4                        	LEA	ESP,DWORD [-12+EBP]
  1090 000009C7 5B                              	POP	EBX
  1091 000009C8 5E                              	POP	ESI
  1092 000009C9 5F                              	POP	EDI
  1093 000009CA 5D                              	POP	EBP
  1094 000009CB E9 00000EC9                     	JMP	_cmd_setlog
  1095 000009D0                                 L205:
  1096 000009D0 8B 45 EC                        	MOV	EAX,DWORD [-20+EBP]
  1097 000009D3 8B 4D E8                        	MOV	ECX,DWORD [-24+EBP]
  1098 000009D6 89 45 10                        	MOV	DWORD [16+EBP],EAX
  1099 000009D9 89 4D 0C                        	MOV	DWORD [12+EBP],ECX
  1100 000009DC 89 5D 08                        	MOV	DWORD [8+EBP],EBX
  1101 000009DF 8D 65 F4                        	LEA	ESP,DWORD [-12+EBP]
  1102 000009E2 5B                              	POP	EBX
  1103 000009E3 5E                              	POP	ESI
  1104 000009E4 5F                              	POP	EDI
  1105 000009E5 5D                              	POP	EBP
  1106 000009E6 E9 000018A9                     	JMP	_cmd_start
  1107 000009EB                                 L204:
  1108 000009EB 8B 45 EC                        	MOV	EAX,DWORD [-20+EBP]
  1109 000009EE 8B 4D E8                        	MOV	ECX,DWORD [-24+EBP]
  1110 000009F1 89 45 10                        	MOV	DWORD [16+EBP],EAX
  1111 000009F4 89 4D 0C                        	MOV	DWORD [12+EBP],ECX
  1112 000009F7 89 5D 08                        	MOV	DWORD [8+EBP],EBX
  1113 000009FA 8D 65 F4                        	LEA	ESP,DWORD [-12+EBP]
  1114 000009FD 5B                              	POP	EBX
  1115 000009FE 5E                              	POP	ESI
  1116 000009FF 5F                              	POP	EDI
  1117 00000A00 5D                              	POP	EBP
  1118 00000A01 E9 00001918                     	JMP	_cmd_ncst
  1119 00000A06                                 L203:
  1120 00000A06 8B 45 EC                        	MOV	EAX,DWORD [-20+EBP]
  1121 00000A09 89 5D 08                        	MOV	DWORD [8+EBP],EBX
  1122 00000A0C 89 45 0C                        	MOV	DWORD [12+EBP],EAX
  1123 00000A0F 8D 65 F4                        	LEA	ESP,DWORD [-12+EBP]
  1124 00000A12 5B                              	POP	EBX
  1125 00000A13 5E                              	POP	ESI
  1126 00000A14 5F                              	POP	EDI
  1127 00000A15 5D                              	POP	EBP
  1128 00000A16 E9 00000F6C                     	JMP	_cmd_memmap
  1129 00000A1B                                 L202:
  1130 00000A1B 8B 45 E8                        	MOV	EAX,DWORD [-24+EBP]
  1131 00000A1E 89 5D 08                        	MOV	DWORD [8+EBP],EBX
  1132 00000A21 89 45 0C                        	MOV	DWORD [12+EBP],EAX
  1133 00000A24 8D 65 F4                        	LEA	ESP,DWORD [-12+EBP]
  1134 00000A27 5B                              	POP	EBX
  1135 00000A28 5E                              	POP	ESI
  1136 00000A29 5F                              	POP	EDI
  1137 00000A2A 5D                              	POP	EBP
  1138 00000A2B E9 00000C7A                     	JMP	_cmd_mkfile
  1139 00000A30                                 L201:
  1140 00000A30 8B 45 E8                        	MOV	EAX,DWORD [-24+EBP]
  1141 00000A33 89 5D 08                        	MOV	DWORD [8+EBP],EBX
  1142 00000A36 89 45 0C                        	MOV	DWORD [12+EBP],EAX
  1143 00000A39 8D 65 F4                        	LEA	ESP,DWORD [-12+EBP]
  1144 00000A3C 5B                              	POP	EBX
  1145 00000A3D 5E                              	POP	ESI
  1146 00000A3E 5F                              	POP	EDI
  1147 00000A3F 5D                              	POP	EBP
  1148 00000A40 E9 00000A79                     	JMP	_cmd_mkdir
  1149 00000A45                                 L200:
  1150 00000A45 89 5D 08                        	MOV	DWORD [8+EBP],EBX
  1151 00000A48 8D 65 F4                        	LEA	ESP,DWORD [-12+EBP]
  1152 00000A4B 5B                              	POP	EBX
  1153 00000A4C 5E                              	POP	ESI
  1154 00000A4D 5F                              	POP	EDI
  1155 00000A4E 5D                              	POP	EBP
  1156 00000A4F E9 0000144A                     	JMP	_cmd_mkfs
  1157 00000A54                                 L199:
  1158 00000A54 8B 45 EC                        	MOV	EAX,DWORD [-20+EBP]
  1159 00000A57 89 5D 08                        	MOV	DWORD [8+EBP],EBX
  1160 00000A5A 89 45 0C                        	MOV	DWORD [12+EBP],EAX
  1161 00000A5D 8D 65 F4                        	LEA	ESP,DWORD [-12+EBP]
  1162 00000A60 5B                              	POP	EBX
  1163 00000A61 5E                              	POP	ESI
  1164 00000A62 5F                              	POP	EDI
  1165 00000A63 5D                              	POP	EBP
  1166 00000A64 E9 00000E79                     	JMP	_cmd_mem
  1167 00000A69                                 L198:
  1168 00000A69 89 5D 08                        	MOV	DWORD [8+EBP],EBX
  1169 00000A6C 8D 65 F4                        	LEA	ESP,DWORD [-12+EBP]
  1170 00000A6F 5B                              	POP	EBX
  1171 00000A70 5E                              	POP	ESI
  1172 00000A71 5F                              	POP	EDI
  1173 00000A72 5D                              	POP	EBP
  1174 00000A73 E9 000010A0                     	JMP	_cmd_logcls
  1175 00000A78                                 L197:
  1176 00000A78 89 5D 08                        	MOV	DWORD [8+EBP],EBX
  1177 00000A7B 8D 65 F4                        	LEA	ESP,DWORD [-12+EBP]
  1178 00000A7E 5B                              	POP	EBX
  1179 00000A7F 5E                              	POP	ESI
  1180 00000A80 5F                              	POP	EDI
  1181 00000A81 5D                              	POP	EBP
  1182 00000A82 E9 00000F41                     	JMP	_cmd_log
  1183 00000A87                                 L196:
  1184 00000A87 8B 45 E8                        	MOV	EAX,DWORD [-24+EBP]
  1185 00000A8A 89 5D 08                        	MOV	DWORD [8+EBP],EBX
  1186 00000A8D 89 45 0C                        	MOV	DWORD [12+EBP],EAX
  1187 00000A90 8D 65 F4                        	LEA	ESP,DWORD [-12+EBP]
  1188 00000A93 5B                              	POP	EBX
  1189 00000A94 5E                              	POP	ESI
  1190 00000A95 5F                              	POP	EDI
  1191 00000A96 5D                              	POP	EBP
  1192 00000A97 E9 000018E6                     	JMP	_cmd_langmode
  1193 00000A9C                                 L195:
  1194 00000A9C 8B 45 E8                        	MOV	EAX,DWORD [-24+EBP]
  1195 00000A9F 89 5D 08                        	MOV	DWORD [8+EBP],EBX
  1196 00000AA2 89 45 0C                        	MOV	DWORD [12+EBP],EAX
  1197 00000AA5 8D 65 F4                        	LEA	ESP,DWORD [-12+EBP]
  1198 00000AA8 5B                              	POP	EBX
  1199 00000AA9 5E                              	POP	ESI
  1200 00000AAA 5F                              	POP	EDI
  1201 00000AAB 5D                              	POP	EBP
  1202 00000AAC E9 00001292                     	JMP	_cmd_fview
  1203 00000AB1                                 L194:
  1204 00000AB1 89 5D 08                        	MOV	DWORD [8+EBP],EBX
  1205 00000AB4 8D 65 F4                        	LEA	ESP,DWORD [-12+EBP]
  1206 00000AB7 5B                              	POP	EBX
  1207 00000AB8 5E                              	POP	ESI
  1208 00000AB9 5F                              	POP	EDI
  1209 00000ABA 5D                              	POP	EBP
  1210 00000ABB E9 00001688                     	JMP	_cmd_fddir
  1211 00000AC0                                 L193:
  1212 00000AC0 8B 45 E8                        	MOV	EAX,DWORD [-24+EBP]
  1213 00000AC3 89 5D 08                        	MOV	DWORD [8+EBP],EBX
  1214 00000AC6 89 45 0C                        	MOV	DWORD [12+EBP],EAX
  1215 00000AC9 8D 65 F4                        	LEA	ESP,DWORD [-12+EBP]
  1216 00000ACC 5B                              	POP	EBX
  1217 00000ACD 5E                              	POP	ESI
  1218 00000ACE 5F                              	POP	EDI
  1219 00000ACF 5D                              	POP	EBP
  1220 00000AD0 E9 00000418                     	JMP	_cmd_edit
  1221 00000AD5                                 L192:
  1222 00000AD5 8B 45 F0                        	MOV	EAX,DWORD [-16+EBP]
  1223 00000AD8 89 5D 08                        	MOV	DWORD [8+EBP],EBX
  1224 00000ADB 89 45 0C                        	MOV	DWORD [12+EBP],EAX
  1225 00000ADE 8D 65 F4                        	LEA	ESP,DWORD [-12+EBP]
  1226 00000AE1 5B                              	POP	EBX
  1227 00000AE2 5E                              	POP	ESI
  1228 00000AE3 5F                              	POP	EDI
  1229 00000AE4 5D                              	POP	EBP
  1230 00000AE5 E9 00001712                     	JMP	_cmd_exit
  1231 00000AEA                                 L191:
  1232 00000AEA 89 5D 08                        	MOV	DWORD [8+EBP],EBX
  1233 00000AED 8D 65 F4                        	LEA	ESP,DWORD [-12+EBP]
  1234 00000AF0 5B                              	POP	EBX
  1235 00000AF1 5E                              	POP	ESI
  1236 00000AF2 5F                              	POP	EDI
  1237 00000AF3 5D                              	POP	EBP
  1238 00000AF4 E9 00001536                     	JMP	_cmd_dir
  1239 00000AF9                                 L190:
  1240 00000AF9 89 5D 08                        	MOV	DWORD [8+EBP],EBX
  1241 00000AFC 8D 65 F4                        	LEA	ESP,DWORD [-12+EBP]
  1242 00000AFF 5B                              	POP	EBX
  1243 00000B00 5E                              	POP	ESI
  1244 00000B01 5F                              	POP	EDI
  1245 00000B02 5D                              	POP	EBP
  1246 00000B03 E9 00000F8D                     	JMP	_cmd_cls
  1247 00000B08                                 L189:
  1248 00000B08 8B 45 E8                        	MOV	EAX,DWORD [-24+EBP]
  1249 00000B0B 89 5D 08                        	MOV	DWORD [8+EBP],EBX
  1250 00000B0E 89 45 0C                        	MOV	DWORD [12+EBP],EAX
  1251 00000B11 8D 65 F4                        	LEA	ESP,DWORD [-12+EBP]
  1252 00000B14 5B                              	POP	EBX
  1253 00000B15 5E                              	POP	ESI
  1254 00000B16 5F                              	POP	EDI
  1255 00000B17 5D                              	POP	EBP
  1256 00000B18 EB 1B                           	JMP	_cmd_cd
  1257 00000B1A                                 L188:
  1258 00000B1A 8B 45 E8                        	MOV	EAX,DWORD [-24+EBP]
  1259 00000B1D 8B 4D F0                        	MOV	ECX,DWORD [-16+EBP]
  1260 00000B20 89 45 10                        	MOV	DWORD [16+EBP],EAX
  1261 00000B23 89 4D 0C                        	MOV	DWORD [12+EBP],ECX
  1262 00000B26 89 5D 08                        	MOV	DWORD [8+EBP],EBX
  1263 00000B29 8D 65 F4                        	LEA	ESP,DWORD [-12+EBP]
  1264 00000B2C 5B                              	POP	EBX
  1265 00000B2D 5E                              	POP	ESI
  1266 00000B2E 5F                              	POP	EDI
  1267 00000B2F 5D                              	POP	EBP
  1268 00000B30 E9 00000EC4                     	JMP	_cmd_cat
  1269 00000B35                                 	GLOBAL	_cmd_cd
  1270 00000B35                                 _cmd_cd:
  1271 00000B35 55                              	PUSH	EBP
  1272 00000B36 89 E5                           	MOV	EBP,ESP
  1273 00000B38 53                              	PUSH	EBX
  1274 00000B39 8B 45 0C                        	MOV	EAX,DWORD [12+EBP]
  1275 00000B3C 8B 5D 08                        	MOV	EBX,DWORD [8+EBP]
  1276 00000B3F 83 C0 03                        	ADD	EAX,3
  1277 00000B42 50                              	PUSH	EAX
  1278 00000B43 53                              	PUSH	EBX
  1279 00000B44 E8 00000071                     	CALL	_parse_cdline
  1280 00000B49 59                              	POP	ECX
  1281 00000B4A 5A                              	POP	EDX
  1282 00000B4B 85 C0                           	TEST	EAX,EAX
  1283 00000B4D 74 03                           	JE	L210
  1284 00000B4F 89 43 14                        	MOV	DWORD [20+EBX],EAX
  1285 00000B52                                 L210:
  1286 00000B52 8B 5D FC                        	MOV	EBX,DWORD [-4+EBP]
  1287 00000B55 C9                              	LEAVE
  1288 00000B56 C3                              	RET
  1289 00000B57                                 	GLOBAL	_get_dirname
  1290 00000B57                                 _get_dirname:
  1291 00000B57 55                              	PUSH	EBP
  1292 00000B58 A1 [00000AC0]                   	MOV	EAX,DWORD [_cp]
  1293 00000B5D 89 E5                           	MOV	EBP,ESP
  1294 00000B5F 31 C9                           	XOR	ECX,ECX
  1295 00000B61 56                              	PUSH	ESI
  1296 00000B62 53                              	PUSH	EBX
  1297 00000B63 8B 75 08                        	MOV	ESI,DWORD [8+EBP]
  1298 00000B66 8B 5D 0C                        	MOV	EBX,DWORD [12+EBP]
  1299 00000B69 8A 14 18                        	MOV	DL,BYTE [EAX+EBX*1]
  1300 00000B6C 8D 42 BF                        	LEA	EAX,DWORD [-65+EDX]
  1301 00000B6F 3C 19                           	CMP	AL,25
  1302 00000B71 77 37                           	JA	L219
  1303 00000B73                                 L216:
  1304 00000B73 A1 [00000AC0]                   	MOV	EAX,DWORD [_cp]
  1305 00000B78 8A 04 18                        	MOV	AL,BYTE [EAX+EBX*1]
  1306 00000B7B 88 04 31                        	MOV	BYTE [ECX+ESI*1],AL
  1307 00000B7E 41                              	INC	ECX
  1308 00000B7F A1 [00000AC0]                   	MOV	EAX,DWORD [_cp]
  1309 00000B84 40                              	INC	EAX
  1310 00000B85 A3 [00000AC0]                   	MOV	DWORD [_cp],EAX
  1311 00000B8A 8A 14 18                        	MOV	DL,BYTE [EAX+EBX*1]
  1312 00000B8D 8D 42 BF                        	LEA	EAX,DWORD [-65+EDX]
  1313 00000B90 3C 19                           	CMP	AL,25
  1314 00000B92 76 DF                           	JBE	L216
  1315 00000B94 8D 42 9F                        	LEA	EAX,DWORD [-97+EDX]
  1316 00000B97 3C 19                           	CMP	AL,25
  1317 00000B99 76 D8                           	JBE	L216
  1318 00000B9B 8D 42 D0                        	LEA	EAX,DWORD [-48+EDX]
  1319 00000B9E 3C 09                           	CMP	AL,9
  1320 00000BA0 76 D1                           	JBE	L216
  1321 00000BA2                                 L218:
  1322 00000BA2 C6 04 31 00                     	MOV	BYTE [ECX+ESI*1],0
  1323 00000BA6 5B                              	POP	EBX
  1324 00000BA7 5E                              	POP	ESI
  1325 00000BA8 5D                              	POP	EBP
  1326 00000BA9 C3                              	RET
  1327 00000BAA                                 L219:
  1328 00000BAA 8D 42 9F                        	LEA	EAX,DWORD [-97+EDX]
  1329 00000BAD 3C 19                           	CMP	AL,25
  1330 00000BAF 76 C2                           	JBE	L216
  1331 00000BB1 8D 42 D0                        	LEA	EAX,DWORD [-48+EDX]
  1332 00000BB4 3C 09                           	CMP	AL,9
  1333 00000BB6 76 BB                           	JBE	L216
  1334 00000BB8 EB E8                           	JMP	L218
  1335                                          [SECTION .data]
  1336 000000A3                                 LC27:
  1337 000000A3 2A 2A 2A 2A 2A 49 4E 20 46 55   	DB	"*****IN FUNC: parse_cdline()*****",0x0A,0x00
       000000AD 4E 43 3A 20 70 61 72 73 65 5F 
       000000B7 63 64 6C 69 6E 65 28 29 2A 2A 
       000000C1 2A 2A 2A 0A 00 
  1338 000000C6                                 LC28:
  1339 000000C6 4E 2F 41 00                     	DB	"N/A",0x00
  1340 000000CA                                 LC38:
  1341 000000CA 5B 25 64 5D 63 68 61 6E 67 65   	DB	"[%d]change directory: %s -> %s",0x0A,0x00
       000000D4 20 64 69 72 65 63 74 6F 72 79 
       000000DE 3A 20 25 73 20 2D 3E 20 25 73 
       000000E8 0A 00 
  1342 000000EA                                 LC39:
  1343 000000EA 5B 52 45 53 55 4C 54 5D 64 65   	DB	"[RESULT]destination: %s -> %s",0x0A,0x00
       000000F4 73 74 69 6E 61 74 69 6F 6E 3A 
       000000FE 20 25 73 20 2D 3E 20 25 73 0A 
       00000108 00 
  1344 00000109                                 LC35:
  1345 00000109 2A 2A 2A 2A 2A 2A 2A 2A 2A 2A   	DB	"*********************************",0x0A,0x00
       00000113 2A 2A 2A 2A 2A 2A 2A 2A 2A 2A 
       0000011D 2A 2A 2A 2A 2A 2A 2A 2A 2A 2A 
       00000127 2A 2A 2A 0A 00 
  1346 0000012C                                 LC37:
  1347 0000012C 43 61 6E 27 74 20 66 69 6E 64   	DB	"Can't find this directory.",0x0A,0x00
       00000136 20 74 68 69 73 20 64 69 72 65 
       00000140 63 74 6F 72 79 2E 0A 00 
  1348 00000148                                 LC29:
  1349 00000148 66 69 6C 65 6E 61 6D 65 20 68   	DB	"filename has found.",0x0A,0x00
       00000152 61 73 20 66 6F 75 6E 64 2E 0A 
       0000015C 00 
  1350 0000015D                                 LC30:
  1351 0000015D 63 68 61 6E 67 65 20 64 69 72   	DB	"change directory using relative path",0x0A,0x00
       00000167 65 63 74 6F 72 79 20 75 73 69 
       00000171 6E 67 20 72 65 6C 61 74 69 76 
       0000017B 65 20 70 61 74 68 0A 00 
  1352 00000183                                 LC33:
  1353 00000183 22 2E 2E 22 20 68 61 73 20 66   	DB	0x22,"..",0x22," has found.",0x0A,0x00
       0000018D 6F 75 6E 64 2E 0A 00 
  1354 00000194                                 LC34:
  1355 00000194 43 61 6E 27 74 20 6D 6F 76 65   	DB	"Can't move because here is ROOT directory.",0x0A,0x00
       0000019E 20 62 65 63 61 75 73 65 20 68 
       000001A8 65 72 65 20 69 73 20 52 4F 4F 
       000001B2 54 20 64 69 72 65 63 74 6F 72 
       000001BC 79 2E 0A 00 
  1356 000001C0                                 LC36:
  1357 000001C0 49 6E 63 6F 72 72 65 63 74 20   	DB	"Incorrect initial character.",0x0A,0x00
       000001CA 69 6E 69 74 69 61 6C 20 63 68 
       000001D4 61 72 61 63 74 65 72 2E 0A 00 
  1358 000001DE                                 LC31:
  1359 000001DE 27 2F 27 20 68 61 73 20 66 6F   	DB	"'/' has found.",0x0A,0x00
       000001E8 75 6E 64 2E 0A 00 
  1360 000001EE                                 LC32:
  1361 000001EE 63 68 61 6E 67 65 20 64 69 72   	DB	"change directory using absolute path",0x0A,0x00
       000001F8 65 63 74 6F 72 79 20 75 73 69 
       00000202 6E 67 20 61 62 73 6F 6C 75 74 
       0000020C 65 20 70 61 74 68 0A 00 
  1362                                          [SECTION .text]
  1363 00000BBA                                 	GLOBAL	_parse_cdline
  1364 00000BBA                                 _parse_cdline:
  1365 00000BBA 55                              	PUSH	EBP
  1366 00000BBB 89 E5                           	MOV	EBP,ESP
  1367 00000BBD 57                              	PUSH	EDI
  1368 00000BBE 56                              	PUSH	ESI
  1369 00000BBF 31 FF                           	XOR	EDI,EDI
  1370 00000BC1 53                              	PUSH	EBX
  1371 00000BC2 81 EC 0000015C                  	SUB	ESP,348
  1372 00000BC8 8B 75 0C                        	MOV	ESI,DWORD [12+EBP]
  1373 00000BCB 68 [000000A3]                   	PUSH	LC27
  1374 00000BD0 C7 85 FFFFFE98 00000000         	MOV	DWORD [-360+EBP],0
  1375 00000BDA E8 FFFFF421                     	CALL	_debug_print
  1376 00000BDF 8D 85 FFFFFF14                  	LEA	EAX,DWORD [-236+EBP]
  1377 00000BE5 68 [000000C6]                   	PUSH	LC28
  1378 00000BEA 50                              	PUSH	EAX
  1379 00000BEB C7 05 [00000AC0] 00000000       	MOV	DWORD [_cp],0
  1380 00000BF5 E8 [00000000]                   	CALL	_sprintf
  1381 00000BFA A1 [00000AC0]                   	MOV	EAX,DWORD [_cp]
  1382 00000BFF 83 C4 0C                        	ADD	ESP,12
  1383 00000C02 80 3C 30 00                     	CMP	BYTE [EAX+ESI*1],0
  1384 00000C06 0F 84 00000091                  	JE	L245
  1385 00000C0C                                 L243:
  1386 00000C0C 83 3D [00000AC0] 00             	CMP	DWORD [_cp],0
  1387 00000C13 0F 85 0000021D                  	JNE	L247
  1388 00000C19                                 L224:
  1389 00000C19 8B 0D [00000AC0]                	MOV	ECX,DWORD [_cp]
  1390 00000C1F 8A 14 31                        	MOV	DL,BYTE [ECX+ESI*1]
  1391 00000C22 8D 42 BF                        	LEA	EAX,DWORD [-65+EDX]
  1392 00000C25 3C 19                           	CMP	AL,25
  1393 00000C27 76 12                           	JBE	L226
  1394 00000C29 8D 42 9F                        	LEA	EAX,DWORD [-97+EDX]
  1395 00000C2C 3C 19                           	CMP	AL,25
  1396 00000C2E 76 0B                           	JBE	L226
  1397 00000C30 8D 42 D0                        	LEA	EAX,DWORD [-48+EDX]
  1398 00000C33 3C 09                           	CMP	AL,9
  1399 00000C35 0F 87 0000013F                  	JA	L225
  1400 00000C3B                                 L226:
  1401 00000C3B 85 C9                           	TEST	ECX,ECX
  1402 00000C3D 0F 84 000000FE                  	JE	L248
  1403 00000C43                                 L228:
  1404 00000C43 A1 [00000AC0]                   	MOV	EAX,DWORD [_cp]
  1405 00000C48 8A 14 30                        	MOV	DL,BYTE [EAX+ESI*1]
  1406 00000C4B 80 FA 2E                        	CMP	DL,46
  1407 00000C4E 0F 84 000000DD                  	JE	L249
  1408 00000C54                                 L239:
  1409 00000C54 84 D2                           	TEST	DL,DL
  1410 00000C56 0F 85 00000095                  	JNE	L250
  1411 00000C5C                                 L235:
  1412 00000C5C 57                              	PUSH	EDI
  1413 00000C5D 8D 9D FFFFFEA4                  	LEA	EBX,DWORD [-348+EBP]
  1414 00000C63 53                              	PUSH	EBX
  1415 00000C64 E8 FFFFFA01                     	CALL	_get_pathname
  1416 00000C69 8D 85 FFFFFF14                  	LEA	EAX,DWORD [-236+EBP]
  1417 00000C6F 53                              	PUSH	EBX
  1418 00000C70 8D 5D 84                        	LEA	EBX,DWORD [-124+EBP]
  1419 00000C73 50                              	PUSH	EAX
  1420 00000C74 FF B5 FFFFFE98                  	PUSH	DWORD [-360+EBP]
  1421 00000C7A 68 [000000CA]                   	PUSH	LC38
  1422 00000C7F 53                              	PUSH	EBX
  1423 00000C80 E8 [00000000]                   	CALL	_sprintf
  1424 00000C85 53                              	PUSH	EBX
  1425 00000C86 E8 FFFFF375                     	CALL	_debug_print
  1426 00000C8B A1 [00000AC0]                   	MOV	EAX,DWORD [_cp]
  1427 00000C90 83 C4 20                        	ADD	ESP,32
  1428 00000C93 80 3C 30 00                     	CMP	BYTE [EAX+ESI*1],0
  1429 00000C97 0F 85 FFFFFF6F                  	JNE	L243
  1430 00000C9D                                 L245:
  1431 00000C9D 8B 45 08                        	MOV	EAX,DWORD [8+EBP]
  1432 00000CA0 8D 9D FFFFFF14                  	LEA	EBX,DWORD [-236+EBP]
  1433 00000CA6 8D B5 FFFFFEA4                  	LEA	ESI,DWORD [-348+EBP]
  1434 00000CAC FF 70 14                        	PUSH	DWORD [20+EAX]
  1435 00000CAF 53                              	PUSH	EBX
  1436 00000CB0 E8 FFFFF9B5                     	CALL	_get_pathname
  1437 00000CB5 57                              	PUSH	EDI
  1438 00000CB6 56                              	PUSH	ESI
  1439 00000CB7 E8 FFFFF9AE                     	CALL	_get_pathname
  1440 00000CBC 56                              	PUSH	ESI
  1441 00000CBD 53                              	PUSH	EBX
  1442 00000CBE 8D 5D 84                        	LEA	EBX,DWORD [-124+EBP]
  1443 00000CC1 68 [000000EA]                   	PUSH	LC39
  1444 00000CC6 53                              	PUSH	EBX
  1445 00000CC7 E8 [00000000]                   	CALL	_sprintf
  1446 00000CCC 83 C4 20                        	ADD	ESP,32
  1447 00000CCF 53                              	PUSH	EBX
  1448 00000CD0 E8 FFFFF32B                     	CALL	_debug_print
  1449 00000CD5 68 [00000109]                   	PUSH	LC35
  1450 00000CDA E8 FFFFF321                     	CALL	_debug_print
  1451 00000CDF FF 75 08                        	PUSH	DWORD [8+EBP]
  1452 00000CE2 E8 FFFFF790                     	CALL	_cons_newline
  1453 00000CE7 89 F8                           	MOV	EAX,EDI
  1454 00000CE9                                 L220:
  1455 00000CE9 8D 65 F4                        	LEA	ESP,DWORD [-12+EBP]
  1456 00000CEC 5B                              	POP	EBX
  1457 00000CED 5E                              	POP	ESI
  1458 00000CEE 5F                              	POP	EDI
  1459 00000CEF 5D                              	POP	EBP
  1460 00000CF0 C3                              	RET
  1461 00000CF1                                 L250:
  1462 00000CF1 56                              	PUSH	ESI
  1463 00000CF2 8D 9D FFFFFE9C                  	LEA	EBX,DWORD [-356+EBP]
  1464 00000CF8 53                              	PUSH	EBX
  1465 00000CF9 E8 FFFFFE59                     	CALL	_get_dirname
  1466 00000CFE 6A 32                           	PUSH	50
  1467 00000D00 57                              	PUSH	EDI
  1468 00000D01 53                              	PUSH	EBX
  1469 00000D02 E8 [00000000]                   	CALL	_myfinfo_search
  1470 00000D07 83 C4 14                        	ADD	ESP,20
  1471 00000D0A 85 C0                           	TEST	EAX,EAX
  1472 00000D0C 74 08                           	JE	L251
  1473 00000D0E 8B 78 20                        	MOV	EDI,DWORD [32+EAX]
  1474 00000D11 E9 FFFFFF46                     	JMP	L235
  1475 00000D16                                 L251:
  1476 00000D16 68 [0000012C]                   	PUSH	LC37
  1477 00000D1B                                 L246:
  1478 00000D1B FF 75 08                        	PUSH	DWORD [8+EBP]
  1479 00000D1E E8 0000012D                     	CALL	_cd_error
  1480 00000D23 68 [00000109]                   	PUSH	LC35
  1481 00000D28 E8 FFFFF2D3                     	CALL	_debug_print
  1482 00000D2D 31 C0                           	XOR	EAX,EAX
  1483 00000D2F EB B8                           	JMP	L220
  1484 00000D31                                 L249:
  1485 00000D31 80 7C 30 01 2E                  	CMP	BYTE [1+EAX+ESI*1],46
  1486 00000D36 0F 85 FFFFFF18                  	JNE	L239
  1487 00000D3C E9 FFFFFF1B                     	JMP	L235
  1488 00000D41                                 L248:
  1489 00000D41 68 [00000148]                   	PUSH	LC29
  1490 00000D46 8D 5D 84                        	LEA	EBX,DWORD [-124+EBP]
  1491 00000D49 E8 FFFFF2B2                     	CALL	_debug_print
  1492 00000D4E 68 [0000015D]                   	PUSH	LC30
  1493 00000D53 53                              	PUSH	EBX
  1494 00000D54 E8 [00000000]                   	CALL	_sprintf
  1495 00000D59 53                              	PUSH	EBX
  1496 00000D5A E8 FFFFF2A1                     	CALL	_debug_print
  1497 00000D5F 8B 45 08                        	MOV	EAX,DWORD [8+EBP]
  1498 00000D62 8B 78 14                        	MOV	EDI,DWORD [20+EAX]
  1499 00000D65 8D 85 FFFFFF14                  	LEA	EAX,DWORD [-236+EBP]
  1500 00000D6B 57                              	PUSH	EDI
  1501 00000D6C 50                              	PUSH	EAX
  1502 00000D6D E8 FFFFF8F8                     	CALL	_get_pathname
  1503 00000D72 83 C4 18                        	ADD	ESP,24
  1504 00000D75 E9 FFFFFEC9                     	JMP	L228
  1505 00000D7A                                 L225:
  1506 00000D7A 80 FA 2F                        	CMP	DL,47
  1507 00000D7D 74 79                           	JE	L252
  1508 00000D7F 80 FA 2E                        	CMP	DL,46
  1509 00000D82 75 6A                           	JNE	L232
  1510 00000D84 80 7C 31 01 2E                  	CMP	BYTE [1+ECX+ESI*1],46
  1511 00000D89 75 63                           	JNE	L232
  1512 00000D8B 68 [00000183]                   	PUSH	LC33
  1513 00000D90 E8 FFFFF26B                     	CALL	_debug_print
  1514 00000D95 59                              	POP	ECX
  1515 00000D96 A1 [00000AC0]                   	MOV	EAX,DWORD [_cp]
  1516 00000D9B 83 C0 02                        	ADD	EAX,2
  1517 00000D9E A3 [00000AC0]                   	MOV	DWORD [_cp],EAX
  1518 00000DA3 83 F8 02                        	CMP	EAX,2
  1519 00000DA6 74 1A                           	JE	L253
  1520 00000DA8                                 L233:
  1521 00000DA8 8B 87 000007D8                  	MOV	EAX,DWORD [2008+EDI]
  1522 00000DAE 89 C7                           	MOV	EDI,EAX
  1523 00000DB0 85 C0                           	TEST	EAX,EAX
  1524 00000DB2 0F 85 FFFFFEA4                  	JNE	L235
  1525 00000DB8 68 [00000194]                   	PUSH	LC34
  1526 00000DBD E9 FFFFFF59                     	JMP	L246
  1527 00000DC2                                 L253:
  1528 00000DC2 68 [0000015D]                   	PUSH	LC30
  1529 00000DC7 8D 5D 84                        	LEA	EBX,DWORD [-124+EBP]
  1530 00000DCA 53                              	PUSH	EBX
  1531 00000DCB E8 [00000000]                   	CALL	_sprintf
  1532 00000DD0 53                              	PUSH	EBX
  1533 00000DD1 E8 FFFFF22A                     	CALL	_debug_print
  1534 00000DD6 8B 45 08                        	MOV	EAX,DWORD [8+EBP]
  1535 00000DD9 8B 78 14                        	MOV	EDI,DWORD [20+EAX]
  1536 00000DDC 8D 85 FFFFFF14                  	LEA	EAX,DWORD [-236+EBP]
  1537 00000DE2 57                              	PUSH	EDI
  1538 00000DE3 50                              	PUSH	EAX
  1539 00000DE4 E8 FFFFF881                     	CALL	_get_pathname
  1540 00000DE9 83 C4 14                        	ADD	ESP,20
  1541 00000DEC EB BA                           	JMP	L233
  1542 00000DEE                                 L232:
  1543 00000DEE 68 [000001C0]                   	PUSH	LC36
  1544 00000DF3 E9 FFFFFF23                     	JMP	L246
  1545 00000DF8                                 L252:
  1546 00000DF8 68 [000001DE]                   	PUSH	LC31
  1547 00000DFD E8 FFFFF1FE                     	CALL	_debug_print
  1548 00000E02 5B                              	POP	EBX
  1549 00000E03 A1 [00000AC0]                   	MOV	EAX,DWORD [_cp]
  1550 00000E08 40                              	INC	EAX
  1551 00000E09 A3 [00000AC0]                   	MOV	DWORD [_cp],EAX
  1552 00000E0E 48                              	DEC	EAX
  1553 00000E0F 0F 85 FFFFFE2E                  	JNE	L228
  1554 00000E15 68 [000001EE]                   	PUSH	LC32
  1555 00000E1A 8D 5D 84                        	LEA	EBX,DWORD [-124+EBP]
  1556 00000E1D 53                              	PUSH	EBX
  1557 00000E1E BF 00400000                     	MOV	EDI,4194304
  1558 00000E23 E8 [00000000]                   	CALL	_sprintf
  1559 00000E28 53                              	PUSH	EBX
  1560 00000E29 E8 FFFFF1D2                     	CALL	_debug_print
  1561 00000E2E 83 C4 0C                        	ADD	ESP,12
  1562 00000E31 E9 FFFFFE0D                     	JMP	L228
  1563 00000E36                                 L247:
  1564 00000E36 57                              	PUSH	EDI
  1565 00000E37 8D 85 FFFFFF14                  	LEA	EAX,DWORD [-236+EBP]
  1566 00000E3D 50                              	PUSH	EAX
  1567 00000E3E E8 FFFFF827                     	CALL	_get_pathname
  1568 00000E43 58                              	POP	EAX
  1569 00000E44 5A                              	POP	EDX
  1570 00000E45 FF 85 FFFFFE98                  	INC	DWORD [-360+EBP]
  1571 00000E4B E9 FFFFFDC9                     	JMP	L224
  1572 00000E50                                 	GLOBAL	_cd_error
  1573 00000E50                                 _cd_error:
  1574 00000E50 55                              	PUSH	EBP
  1575 00000E51 89 E5                           	MOV	EBP,ESP
  1576 00000E53 57                              	PUSH	EDI
  1577 00000E54 56                              	PUSH	ESI
  1578 00000E55 53                              	PUSH	EBX
  1579 00000E56 8D 45 B4                        	LEA	EAX,DWORD [-76+EBP]
  1580 00000E59 83 EC 40                        	SUB	ESP,64
  1581 00000E5C 31 DB                           	XOR	EBX,EBX
  1582 00000E5E 8B 7D 08                        	MOV	EDI,DWORD [8+EBP]
  1583 00000E61 FF 77 14                        	PUSH	DWORD [20+EDI]
  1584 00000E64 50                              	PUSH	EAX
  1585 00000E65 E8 FFFFF800                     	CALL	_get_pathname
  1586 00000E6A 59                              	POP	ECX
  1587 00000E6B 5E                              	POP	ESI
  1588 00000E6C 80 7D B4 00                     	CMP	BYTE [-76+EBP],0
  1589 00000E70 74 0D                           	JE	L274
  1590 00000E72                                 L259:
  1591 00000E72 C6 44 1D B4 20                  	MOV	BYTE [-76+EBP+EBX*1],32
  1592 00000E77 43                              	INC	EBX
  1593 00000E78 80 7C 1D B4 00                  	CMP	BYTE [-76+EBP+EBX*1],0
  1594 00000E7D 75 F3                           	JNE	L259
  1595 00000E7F                                 L274:
  1596 00000E7F 31 D2                           	XOR	EDX,EDX
  1597 00000E81                                 L264:
  1598 00000E81 8D 4D F4                        	LEA	ECX,DWORD [-12+EBP]
  1599 00000E84 8D 04 19                        	LEA	EAX,DWORD [ECX+EBX*1]
  1600 00000E87 C6 44 02 C0 20                  	MOV	BYTE [-64+EDX+EAX*1],32
  1601 00000E8C 42                              	INC	EDX
  1602 00000E8D 83 FA 02                        	CMP	EDX,2
  1603 00000E90 7E EF                           	JLE	L264
  1604 00000E92 BA 00000003                     	MOV	EDX,3
  1605 00000E97 31 C9                           	XOR	ECX,ECX
  1606 00000E99 8B 35 [00000AC0]                	MOV	ESI,DWORD [_cp]
  1607 00000E9F                                 L271:
  1608 00000E9F 39 F1                           	CMP	ECX,ESI
  1609 00000EA1 7D 33                           	JGE	L278
  1610 00000EA3 8D 45 F4                        	LEA	EAX,DWORD [-12+EBP]
  1611 00000EA6 01 D0                           	ADD	EAX,EDX
  1612 00000EA8 01 C8                           	ADD	EAX,ECX
  1613 00000EAA 41                              	INC	ECX
  1614 00000EAB 83 F9 31                        	CMP	ECX,49
  1615 00000EAE C6 44 03 C0 20                  	MOV	BYTE [-64+EBX+EAX*1],32
  1616 00000EB3 7E EA                           	JLE	L271
  1617 00000EB5                                 L266:
  1618 00000EB5 8D 45 B4                        	LEA	EAX,DWORD [-76+EBP]
  1619 00000EB8 50                              	PUSH	EAX
  1620 00000EB9 57                              	PUSH	EDI
  1621 00000EBA E8 FFFFF6DD                     	CALL	_cons_putstr
  1622 00000EBF FF 75 0C                        	PUSH	DWORD [12+EBP]
  1623 00000EC2 57                              	PUSH	EDI
  1624 00000EC3 E8 FFFFF6D4                     	CALL	_cons_putstr
  1625 00000EC8 57                              	PUSH	EDI
  1626 00000EC9 E8 FFFFF5A9                     	CALL	_cons_newline
  1627 00000ECE 8D 65 F4                        	LEA	ESP,DWORD [-12+EBP]
  1628 00000ED1 5B                              	POP	EBX
  1629 00000ED2 5E                              	POP	ESI
  1630 00000ED3 5F                              	POP	EDI
  1631 00000ED4 5D                              	POP	EBP
  1632 00000ED5 C3                              	RET
  1633 00000ED6                                 L278:
  1634 00000ED6 8D 45 F4                        	LEA	EAX,DWORD [-12+EBP]
  1635 00000ED9 01 D0                           	ADD	EAX,EDX
  1636 00000EDB 01 C8                           	ADD	EAX,ECX
  1637 00000EDD 01 D8                           	ADD	EAX,EBX
  1638 00000EDF C6 40 C0 5E                     	MOV	BYTE [-64+EAX],94
  1639 00000EE3 C6 40 C1 0A                     	MOV	BYTE [-63+EAX],10
  1640 00000EE7 C6 40 C2 00                     	MOV	BYTE [-62+EAX],0
  1641 00000EEB EB C8                           	JMP	L266
  1642                                          [SECTION .data]
  1643 00000214                                 LC61:
  1644 00000214 43 61 6E 27 74 20 65 64 69 74   	DB	"Can't edit: There is no file being opened.",0x0A,0x00
       0000021E 3A 20 54 68 65 72 65 20 69 73 
       00000228 20 6E 6F 20 66 69 6C 65 20 62 
       00000232 65 69 6E 67 20 6F 70 65 6E 65 
       0000023C 64 2E 0A 00 
  1645 00000240                                 LC69:
  1646 00000240 75 6E 65 78 70 65 63 74 65 64   	DB	"unexpected error at edit mode.",0x0A,0x00
       0000024A 20 65 72 72 6F 72 20 61 74 20 
       00000254 65 64 69 74 20 6D 6F 64 65 2E 
       0000025E 0A 00 
  1647 00000260                                 LC70:
  1648 00000260 65 64 69 74 20 72 65 73 75 6C   	DB	"edit result:",0x0A,"%s[EOF]",0x0A,0x00
       0000026A 74 3A 0A 25 73 5B 45 4F 46 5D 
       00000274 0A 00 
  1649 00000276                                 LC53:
  1650 00000276 73 69 7A 65 3A 20 25 64 5B 62   	DB	"size: %d[byte]",0x0A,0x00
       00000280 79 74 65 5D 0A 00 
  1651 00000286                                 LC66:
  1652 00000286 63 61 6E 27 74 20 6F 70 65 6E   	DB	"can't open: There is a file being opened.",0x0A,0x00
       00000290 3A 20 54 68 65 72 65 20 69 73 
       0000029A 20 61 20 66 69 6C 65 20 62 65 
       000002A4 69 6E 67 20 6F 70 65 6E 65 64 
       000002AE 2E 0A 00 
  1653 000002B1                                 LC68:
  1654 000002B1 6F 70 65 6E 65 64 20 22 25 73   	DB	"opened ",0x22,"%s",0x22," file.",0x0A,0x00
       000002BB 22 20 66 69 6C 65 2E 0A 00 
  1655 000002C4                                 LC67:
  1656 000002C4 63 61 6E 27 74 20 6F 70 65 6E   	DB	"can't open ",0x22,"%s",0x22,".",0x0A,0x00
       000002CE 20 22 25 73 22 2E 0A 00 
  1657 000002D6                                 LC65:
  1658 000002D6 49 4E 53 20 4D 4F 44 45 20 52   	DB	"INS MODE RESULT: %s",0x0A,0x00
       000002E0 45 53 55 4C 54 3A 20 25 73 0A 
       000002EA 00 
  1659 000002EB                                 LC63:
  1660 000002EB 63 68 61 72 20 2A 73 20 6F 75   	DB	"char *s out of myfwrite() is shown below.",0x0A,0x00
       000002F5 74 20 6F 66 20 6D 79 66 77 72 
       000002FF 69 74 65 28 29 20 69 73 20 73 
       00000309 68 6F 77 6E 20 62 65 6C 6F 77 
       00000313 2E 0A 00 
  1661 00000316                                 LC64:
  1662 00000316 0A 00                           	DB	0x0A,0x00
  1663 00000318                                 LC62:
  1664 00000318 65 64 69 74 20 6C 69 6E 65 20   	DB	"edit line is too long.",0x00
       00000322 69 73 20 74 6F 6F 20 6C 6F 6E 
       0000032C 67 2E 00 
  1665 0000032F                                 LC41:
  1666 0000032F 6F 70 65 6E 00                  	DB	"open",0x00
  1667 00000334                                 LC43:
  1668 00000334 63 61 6E 27 74 20 65 64 69 74   	DB	"can't edit: There is no file being opened.",0x0A,0x00
       0000033E 3A 20 54 68 65 72 65 20 69 73 
       00000348 20 6E 6F 20 66 69 6C 65 20 62 
       00000352 65 69 6E 67 20 6F 70 65 6E 65 
       0000035C 64 2E 0A 00 
  1669 00000360                                 LC45:
  1670 00000360 69 6E 73 00                     	DB	"ins",0x00
  1671 00000364                                 LC47:
  1672 00000364 61 64 64 00                     	DB	"add",0x00
  1673 00000368                                 LC49:
  1674 00000368 73 68 6F 77 00                  	DB	"show",0x00
  1675 0000036D                                 LC54:
  1676 0000036D 63 6C 6F 73 65 00               	DB	"close",0x00
  1677 00000373                                 LC57:
  1678 00000373 73 61 76 65 00                  	DB	"save",0x00
  1679 00000378                                 LC60:
  1680 00000378 69 6E 76 61 6C 69 64 20 6F 70   	DB	"invalid option.",0x0A,0x00
       00000382 74 69 6F 6E 2E 0A 00 
  1681 00000389                                 LC59:
  1682 00000389 66 69 6E 69 73 68 65 64 20 73   	DB	"finished saving opened file.",0x0A,0x00
       00000393 61 76 69 6E 67 20 6F 70 65 6E 
       0000039D 65 64 20 66 69 6C 65 2E 0A 00 
  1683 000003A7                                 LC58:
  1684 000003A7 43 61 6E 27 74 20 73 61 76 65   	DB	"Can't save because of error in myfinfo_search() in myfsave()",0x0A,0x00
       000003B1 20 62 65 63 61 75 73 65 20 6F 
       000003BB 66 20 65 72 72 6F 72 20 69 6E 
       000003C5 20 6D 79 66 69 6E 66 6F 5F 73 
       000003CF 65 61 72 63 68 28 29 20 69 6E 
       000003D9 20 6D 79 66 73 61 76 65 28 29 
       000003E3 0A 00 
  1685 000003E5                                 LC55:
  1686 000003E5 45 44 49 54 3A 63 6C 6F 73 65   	DB	"EDIT:close mode",0x0A,0x00
       000003EF 20 6D 6F 64 65 0A 00 
  1687 000003F6                                 LC56:
  1688 000003F6 6F 70 65 6E 65 64 20 66 69 6C   	DB	"opened file was closed.",0x0A,0x00
       00000400 65 20 77 61 73 20 63 6C 6F 73 
       0000040A 65 64 2E 0A 00 
  1689 0000040F                                 LC50:
  1690 0000040F 45 44 49 54 3A 73 68 6F 77 20   	DB	"EDIT:show mode",0x0A,0x00
       00000419 6D 6F 64 65 0A 00 
  1691 0000041F                                 LC51:
  1692 0000041F 73 65 74 66 64 61 74 61 2D 3E   	DB	"setfdata->head.stat=0x%02x",0x0A,0x00
       00000429 68 65 61 64 2E 73 74 61 74 3D 
       00000433 30 78 25 30 32 78 0A 00 
  1693 0000043B                                 LC52:
  1694 0000043B 25 73 5B 45 4F 46 5D 0A 00      	DB	"%s[EOF]",0x0A,0x00
  1695 00000444                                 LC48:
  1696 00000444 45 44 49 54 3A 61 64 64 20 6D   	DB	"EDIT:add mode",0x0A,0x00
       0000044E 6F 64 65 0A 00 
  1697 00000453                                 LC46:
  1698 00000453 45 44 49 54 3A 69 6E 73 65 72   	DB	"EDIT:insert mode",0x0A,0x00
       0000045D 74 20 6D 6F 64 65 0A 00 
  1699 00000465                                 LC44:
  1700 00000465 45 44 49 54 3A 63 6C 65 61 72   	DB	"EDIT:clear mode",0x0A,0x00
       0000046F 20 6D 6F 64 65 0A 00 
  1701 00000476                                 LC42:
  1702 00000476 45 44 49 54 3A 6F 70 65 6E 20   	DB	"EDIT:open mode",0x0A,0x00
       00000480 6D 6F 64 65 0A 00 
  1703 00000486                                 LC40:
  1704 00000486 6F 70 74 69 6F 6E 20 69 73 20   	DB	"option is too long.",0x0A,0x00
       00000490 74 6F 6F 20 6C 6F 6E 67 2E 0A 
       0000049A 00 
  1705                                          [SECTION .text]
  1706 00000EED                                 	GLOBAL	_cmd_edit
  1707 00000EED                                 _cmd_edit:
  1708 00000EED 55                              	PUSH	EBP
  1709 00000EEE 89 E5                           	MOV	EBP,ESP
  1710 00000EF0 57                              	PUSH	EDI
  1711 00000EF1 56                              	PUSH	ESI
  1712 00000EF2 53                              	PUSH	EBX
  1713 00000EF3 81 EC 00000ACC                  	SUB	ESP,2764
  1714 00000EF9 8B 45 08                        	MOV	EAX,DWORD [8+EBP]
  1715 00000EFC C6 85 FFFFF52B 00               	MOV	BYTE [-2773+EBP],0
  1716 00000F03 8B 40 14                        	MOV	EAX,DWORD [20+EAX]
  1717 00000F06 68 [0000000A]                   	PUSH	LC1
  1718 00000F0B 89 85 FFFFF530                  	MOV	DWORD [-2768+EBP],EAX
  1719 00000F11 8D 85 FFFFFB74                  	LEA	EAX,DWORD [-1164+EBP]
  1720 00000F17 50                              	PUSH	EAX
  1721 00000F18 E8 [00000000]                   	CALL	_sprintf
  1722 00000F1D 8D 85 FFFFFB34                  	LEA	EAX,DWORD [-1228+EBP]
  1723 00000F23 68 [0000000A]                   	PUSH	LC1
  1724 00000F28 50                              	PUSH	EAX
  1725 00000F29 E8 [00000000]                   	CALL	_sprintf
  1726 00000F2E 8B 55 0C                        	MOV	EDX,DWORD [12+EBP]
  1727 00000F31 C7 85 FFFFF52C 00000005         	MOV	DWORD [-2772+EBP],5
  1728 00000F3B 83 C4 10                        	ADD	ESP,16
  1729 00000F3E 80 7A 05 20                     	CMP	BYTE [5+EDX],32
  1730 00000F42 0F 84 0000055C                  	JE	L283
  1731 00000F48                                 L339:
  1732 00000F48 8B 55 0C                        	MOV	EDX,DWORD [12+EBP]
  1733 00000F4B 8B 8D FFFFF52C                  	MOV	ECX,DWORD [-2772+EBP]
  1734 00000F51 80 3C 11 2D                     	CMP	BYTE [ECX+EDX*1],45
  1735 00000F55 0F 84 000002B7                  	JE	L358
  1736 00000F5B 83 3D [00000004] 00             	CMP	DWORD [_setfdata],0
  1737 00000F62 75 33                           	JNE	L310
  1738 00000F64 80 BD FFFFF52B 08               	CMP	BYTE [-2773+EBP],8
  1739 00000F6B 74 2A                           	JE	L310
  1740 00000F6D 68 [00000214]                   	PUSH	LC61
  1741 00000F72                                 L357:
  1742 00000F72 8D 9D FFFFFB84                  	LEA	EBX,DWORD [-1148+EBP]
  1743 00000F78 53                              	PUSH	EBX
  1744 00000F79 E8 [00000000]                   	CALL	_sprintf
  1745 00000F7E                                 L348:
  1746 00000F7E 53                              	PUSH	EBX
  1747 00000F7F FF 75 08                        	PUSH	DWORD [8+EBP]
  1748 00000F82 E8 FFFFF615                     	CALL	_cons_putstr
  1749 00000F87 FF 75 08                        	PUSH	DWORD [8+EBP]
  1750 00000F8A E8 FFFFF4E8                     	CALL	_cons_newline
  1751 00000F8F                                 L279:
  1752 00000F8F 8D 65 F4                        	LEA	ESP,DWORD [-12+EBP]
  1753 00000F92 5B                              	POP	EBX
  1754 00000F93 5E                              	POP	ESI
  1755 00000F94 5F                              	POP	EDI
  1756 00000F95 5D                              	POP	EBP
  1757 00000F96 C3                              	RET
  1758 00000F97                                 L310:
  1759 00000F97 8B 4D 0C                        	MOV	ECX,DWORD [12+EBP]
  1760 00000F9A 8B 85 FFFFF52C                  	MOV	EAX,DWORD [-2772+EBP]
  1761 00000FA0 31 DB                           	XOR	EBX,EBX
  1762 00000FA2 80 3C 08 00                     	CMP	BYTE [EAX+ECX*1],0
  1763 00000FA6 74 2A                           	JE	L342
  1764 00000FA8                                 L316:
  1765 00000FA8 83 FB 2F                        	CMP	EBX,47
  1766 00000FAB 0F 8F 00000257                  	JG	L346
  1767 00000FB1 8B 8D FFFFF52C                  	MOV	ECX,DWORD [-2772+EBP]
  1768 00000FB7 8B 55 0C                        	MOV	EDX,DWORD [12+EBP]
  1769 00000FBA 8A 04 11                        	MOV	AL,BYTE [ECX+EDX*1]
  1770 00000FBD 41                              	INC	ECX
  1771 00000FBE 88 84 1D FFFFFB34               	MOV	BYTE [-1228+EBP+EBX*1],AL
  1772 00000FC5 89 8D FFFFF52C                  	MOV	DWORD [-2772+EBP],ECX
  1773 00000FCB 43                              	INC	EBX
  1774 00000FCC 80 3C 11 00                     	CMP	BYTE [ECX+EDX*1],0
  1775 00000FD0 75 D6                           	JNE	L316
  1776 00000FD2                                 L342:
  1777 00000FD2 C6 84 1D FFFFFB34 00            	MOV	BYTE [-1228+EBP+EBX*1],0
  1778 00000FDA 80 BD FFFFF52B 00               	CMP	BYTE [-2773+EBP],0
  1779 00000FE1 0F 84 000001D4                  	JE	L318
  1780 00000FE7 80 BD FFFFF52B 04               	CMP	BYTE [-2773+EBP],4
  1781 00000FEE 0F 84 000001C7                  	JE	L318
  1782 00000FF4 80 BD FFFFF52B 01               	CMP	BYTE [-2773+EBP],1
  1783 00000FFB 0F 84 0000017C                  	JE	L359
  1784 00001001 80 BD FFFFF52B 02               	CMP	BYTE [-2773+EBP],2
  1785 00001008 0F 84 000000E3                  	JE	L360
  1786 0000100E 80 BD FFFFF52B 08               	CMP	BYTE [-2773+EBP],8
  1787 00001015 74 57                           	JE	L361
  1788 00001017 68 [00000240]                   	PUSH	LC69
  1789 0000101C E8 FFFFEFDF                     	CALL	_debug_print
  1790 00001021 5F                              	POP	EDI
  1791 00001022                                 L319:
  1792 00001022 FF 35 [00000004]                	PUSH	DWORD [_setfdata]
  1793 00001028 8D 9D FFFFF934                  	LEA	EBX,DWORD [-1740+EBP]
  1794 0000102E 53                              	PUSH	EBX
  1795 0000102F E8 [00000000]                   	CALL	_myfread
  1796 00001034 53                              	PUSH	EBX
  1797 00001035 68 [00000260]                   	PUSH	LC70
  1798 0000103A 8D 9D FFFFFB84                  	LEA	EBX,DWORD [-1148+EBP]
  1799 00001040 53                              	PUSH	EBX
  1800 00001041 E8 [00000000]                   	CALL	_sprintf
  1801 00001046 53                              	PUSH	EBX
  1802 00001047 FF 75 08                        	PUSH	DWORD [8+EBP]
  1803 0000104A E8 FFFFF54D                     	CALL	_cons_putstr
  1804 0000104F FF 35 [00000004]                	PUSH	DWORD [_setfdata]
  1805 00001055 E8 [00000000]                   	CALL	_get_size_myfdata
  1806 0000105A 83 C4 20                        	ADD	ESP,32
  1807 0000105D                                 L351:
  1808 0000105D 50                              	PUSH	EAX
  1809 0000105E 68 [00000276]                   	PUSH	LC53
  1810 00001063 53                              	PUSH	EBX
  1811 00001064 E8 [00000000]                   	CALL	_sprintf
  1812 00001069 E9 FFFFFF10                     	JMP	L348
  1813 0000106E                                 L361:
  1814 0000106E 83 3D [00000004] 00             	CMP	DWORD [_setfdata],0
  1815 00001075 74 0A                           	JE	L334
  1816 00001077 68 [00000286]                   	PUSH	LC66
  1817 0000107C E9 FFFFFEF1                     	JMP	L357
  1818 00001081                                 L334:
  1819 00001081 FF B5 FFFFF530                  	PUSH	DWORD [-2768+EBP]
  1820 00001087 8D 9D FFFFFB34                  	LEA	EBX,DWORD [-1228+EBP]
  1821 0000108D 53                              	PUSH	EBX
  1822 0000108E E8 [00000000]                   	CALL	_myfopen
  1823 00001093 89 C6                           	MOV	ESI,EAX
  1824 00001095 58                              	POP	EAX
  1825 00001096 5A                              	POP	EDX
  1826 00001097 85 F6                           	TEST	ESI,ESI
  1827 00001099 74 31                           	JE	L362
  1828 0000109B 53                              	PUSH	EBX
  1829 0000109C 8D 9D FFFFFB84                  	LEA	EBX,DWORD [-1148+EBP]
  1830 000010A2 68 [000002B1]                   	PUSH	LC68
  1831 000010A7 53                              	PUSH	EBX
  1832 000010A8 E8 [00000000]                   	CALL	_sprintf
  1833 000010AD 53                              	PUSH	EBX
  1834 000010AE FF 75 08                        	PUSH	DWORD [8+EBP]
  1835 000010B1 E8 FFFFF4E6                     	CALL	_cons_putstr
  1836 000010B6 FF 75 08                        	PUSH	DWORD [8+EBP]
  1837 000010B9 E8 FFFFF3B9                     	CALL	_cons_newline
  1838 000010BE 89 35 [00000004]                	MOV	DWORD [_setfdata],ESI
  1839 000010C4                                 L349:
  1840 000010C4 83 C4 18                        	ADD	ESP,24
  1841 000010C7 E9 FFFFFEC3                     	JMP	L279
  1842 000010CC                                 L362:
  1843 000010CC 53                              	PUSH	EBX
  1844 000010CD 8D 9D FFFFFB84                  	LEA	EBX,DWORD [-1148+EBP]
  1845 000010D3 68 [000002C4]                   	PUSH	LC67
  1846 000010D8 53                              	PUSH	EBX
  1847 000010D9 E8 [00000000]                   	CALL	_sprintf
  1848 000010DE 53                              	PUSH	EBX
  1849 000010DF FF 75 08                        	PUSH	DWORD [8+EBP]
  1850 000010E2 E8 FFFFF4B5                     	CALL	_cons_putstr
  1851 000010E7 FF 75 08                        	PUSH	DWORD [8+EBP]
  1852 000010EA E8 FFFFF388                     	CALL	_cons_newline
  1853 000010EF EB D3                           	JMP	L349
  1854 000010F1                                 L360:
  1855 000010F1 FF 35 [00000004]                	PUSH	DWORD [_setfdata]
  1856 000010F7 8D 85 FFFFF534                  	LEA	EAX,DWORD [-2764+EBP]
  1857 000010FD 31 F6                           	XOR	ESI,ESI
  1858 000010FF 50                              	PUSH	EAX
  1859 00001100 E8 [00000000]                   	CALL	_myfread
  1860 00001105 59                              	POP	ECX
  1861 00001106 31 C0                           	XOR	EAX,EAX
  1862 00001108 5F                              	POP	EDI
  1863 00001109 39 D8                           	CMP	EAX,EBX
  1864 0000110B 7D 18                           	JGE	L344
  1865 0000110D                                 L330:
  1866 0000110D 8A 94 05 FFFFFB34               	MOV	DL,BYTE [-1228+EBP+EAX*1]
  1867 00001114 80 FA 20                        	CMP	DL,32
  1868 00001117 74 4B                           	JE	L327
  1869 00001119 88 94 05 FFFFF534               	MOV	BYTE [-2764+EBP+EAX*1],DL
  1870 00001120                                 L325:
  1871 00001120 40                              	INC	EAX
  1872 00001121 39 D8                           	CMP	EAX,EBX
  1873 00001123 7C E8                           	JL	L330
  1874 00001125                                 L344:
  1875 00001125 4E                              	DEC	ESI
  1876 00001126 74 32                           	JE	L363
  1877 00001128                                 L331:
  1878 00001128 8D B5 FFFFF534                  	LEA	ESI,DWORD [-2764+EBP]
  1879 0000112E 8D 9D FFFFFB84                  	LEA	EBX,DWORD [-1148+EBP]
  1880 00001134 56                              	PUSH	ESI
  1881 00001135 68 [000002D6]                   	PUSH	LC65
  1882 0000113A 53                              	PUSH	EBX
  1883 0000113B E8 [00000000]                   	CALL	_sprintf
  1884 00001140 53                              	PUSH	EBX
  1885 00001141 E8 FFFFEEBA                     	CALL	_debug_print
  1886 00001146 56                              	PUSH	ESI
  1887 00001147 FF 35 [00000004]                	PUSH	DWORD [_setfdata]
  1888 0000114D E8 [00000000]                   	CALL	_myfwrite
  1889 00001152 83 C4 18                        	ADD	ESP,24
  1890 00001155 E9 FFFFFEC8                     	JMP	L319
  1891 0000115A                                 L363:
  1892 0000115A C6 84 05 FFFFF534 00            	MOV	BYTE [-2764+EBP+EAX*1],0
  1893 00001162 EB C4                           	JMP	L331
  1894 00001164                                 L327:
  1895 00001164 80 BC 05 FFFFF534 00            	CMP	BYTE [-2764+EBP+EAX*1],0
  1896 0000116C 75 B2                           	JNE	L325
  1897 0000116E C6 84 05 FFFFF534 20            	MOV	BYTE [-2764+EBP+EAX*1],32
  1898 00001176 BE 00000001                     	MOV	ESI,1
  1899 0000117B EB A3                           	JMP	L325
  1900 0000117D                                 L359:
  1901 0000117D FF 35 [00000004]                	PUSH	DWORD [_setfdata]
  1902 00001183 8D 9D FFFFF534                  	LEA	EBX,DWORD [-2764+EBP]
  1903 00001189 53                              	PUSH	EBX
  1904 0000118A E8 [00000000]                   	CALL	_myfread
  1905 0000118F 68 [0000000A]                   	PUSH	LC1
  1906 00001194 53                              	PUSH	EBX
  1907 00001195 E8 [00000000]                   	CALL	_sprintf
  1908 0000119A 8D 85 FFFFFB34                  	LEA	EAX,DWORD [-1228+EBP]
  1909 000011A0 50                              	PUSH	EAX
  1910 000011A1 53                              	PUSH	EBX
  1911 000011A2 E8 [00000000]                   	CALL	_strcat
  1912 000011A7 53                              	PUSH	EBX
  1913 000011A8 FF 35 [00000004]                	PUSH	DWORD [_setfdata]
  1914 000011AE E8 [00000000]                   	CALL	_myfwrite
  1915 000011B3 83 C4 20                        	ADD	ESP,32
  1916 000011B6 E9 FFFFFE67                     	JMP	L319
  1917 000011BB                                 L318:
  1918 000011BB FF 35 [00000004]                	PUSH	DWORD [_setfdata]
  1919 000011C1 8D 9D FFFFFB84                  	LEA	EBX,DWORD [-1148+EBP]
  1920 000011C7 53                              	PUSH	EBX
  1921 000011C8 E8 [00000000]                   	CALL	_myfread
  1922 000011CD 8D 85 FFFFFB34                  	LEA	EAX,DWORD [-1228+EBP]
  1923 000011D3 50                              	PUSH	EAX
  1924 000011D4 53                              	PUSH	EBX
  1925 000011D5 E8 [00000000]                   	CALL	_strcat
  1926 000011DA 68 [000002EB]                   	PUSH	LC63
  1927 000011DF E8 FFFFEE1C                     	CALL	_debug_print
  1928 000011E4 53                              	PUSH	EBX
  1929 000011E5 E8 FFFFEE16                     	CALL	_debug_print
  1930 000011EA 68 [00000316]                   	PUSH	LC64
  1931 000011EF E8 FFFFEE0C                     	CALL	_debug_print
  1932 000011F4 53                              	PUSH	EBX
  1933 000011F5 FF 35 [00000004]                	PUSH	DWORD [_setfdata]
  1934 000011FB E8 [00000000]                   	CALL	_myfwrite
  1935 00001200 83 C4 24                        	ADD	ESP,36
  1936 00001203 E9 FFFFFE1A                     	JMP	L319
  1937 00001208                                 L346:
  1938 00001208 68 [00000318]                   	PUSH	LC62
  1939 0000120D E9 FFFFFD60                     	JMP	L357
  1940 00001212                                 L358:
  1941 00001212 41                              	INC	ECX
  1942 00001213 31 DB                           	XOR	EBX,EBX
  1943 00001215 89 8D FFFFF52C                  	MOV	DWORD [-2772+EBP],ECX
  1944 0000121B 8A 04 11                        	MOV	AL,BYTE [ECX+EDX*1]
  1945 0000121E 3C 20                           	CMP	AL,32
  1946 00001220 74 33                           	JE	L286
  1947 00001222 84 C0                           	TEST	AL,AL
  1948 00001224 74 2F                           	JE	L286
  1949 00001226                                 L290:
  1950 00001226 83 FB 09                        	CMP	EBX,9
  1951 00001229 0F 8F 0000026B                  	JG	L345
  1952 0000122F 8B 8D FFFFF52C                  	MOV	ECX,DWORD [-2772+EBP]
  1953 00001235 8B 55 0C                        	MOV	EDX,DWORD [12+EBP]
  1954 00001238 8A 04 11                        	MOV	AL,BYTE [ECX+EDX*1]
  1955 0000123B 41                              	INC	ECX
  1956 0000123C 88 84 1D FFFFFB74               	MOV	BYTE [-1164+EBP+EBX*1],AL
  1957 00001243 89 8D FFFFF52C                  	MOV	DWORD [-2772+EBP],ECX
  1958 00001249 8A 04 11                        	MOV	AL,BYTE [ECX+EDX*1]
  1959 0000124C 43                              	INC	EBX
  1960 0000124D 3C 20                           	CMP	AL,32
  1961 0000124F 74 04                           	JE	L286
  1962 00001251 84 C0                           	TEST	AL,AL
  1963 00001253 75 D1                           	JNE	L290
  1964 00001255                                 L286:
  1965 00001255 FC                              	CLD
  1966 00001256 C6 84 1D FFFFFB74 00            	MOV	BYTE [-1164+EBP+EBX*1],0
  1967 0000125E 8D B5 FFFFFB74                  	LEA	ESI,DWORD [-1164+EBP]
  1968 00001264 BF [0000032F]                   	MOV	EDI,LC41
  1969 00001269 B9 00000005                     	MOV	ECX,5
  1970 0000126E F3                              	REPE
  1971 0000126F A6                              	CMPSB
  1972 00001270 0F 84 0000020D                  	JE	L364
  1973 00001276                                 L291:
  1974 00001276 83 3D [00000004] 00             	CMP	DWORD [_setfdata],0
  1975 0000127D 75 13                           	JNE	L292
  1976 0000127F 80 BD FFFFF52B 08               	CMP	BYTE [-2773+EBP],8
  1977 00001286 74 0A                           	JE	L292
  1978 00001288 68 [00000334]                   	PUSH	LC43
  1979 0000128D E9 FFFFFCE0                     	JMP	L357
  1980 00001292                                 L292:
  1981 00001292 FC                              	CLD
  1982 00001293 8D B5 FFFFFB74                  	LEA	ESI,DWORD [-1164+EBP]
  1983 00001299 BF [00000021]                   	MOV	EDI,LC7
  1984 0000129E B9 00000004                     	MOV	ECX,4
  1985 000012A3 F3                              	REPE
  1986 000012A4 A6                              	CMPSB
  1987 000012A5 0F 84 000001AF                  	JE	L365
  1988 000012AB FC                              	CLD
  1989 000012AC 8D B5 FFFFFB74                  	LEA	ESI,DWORD [-1164+EBP]
  1990 000012B2 BF [00000360]                   	MOV	EDI,LC45
  1991 000012B7 B9 00000004                     	MOV	ECX,4
  1992 000012BC F3                              	REPE
  1993 000012BD A6                              	CMPSB
  1994 000012BE 0F 84 00000183                  	JE	L366
  1995 000012C4 FC                              	CLD
  1996 000012C5 8D B5 FFFFFB74                  	LEA	ESI,DWORD [-1164+EBP]
  1997 000012CB BF [00000364]                   	MOV	EDI,LC47
  1998 000012D0 B9 00000004                     	MOV	ECX,4
  1999 000012D5 F3                              	REPE
  2000 000012D6 A6                              	CMPSB
  2001 000012D7 0F 84 00000153                  	JE	L367
  2002 000012DD FC                              	CLD
  2003 000012DE 8D B5 FFFFFB74                  	LEA	ESI,DWORD [-1164+EBP]
  2004 000012E4 BF [00000368]                   	MOV	EDI,LC49
  2005 000012E9 B9 00000005                     	MOV	ECX,5
  2006 000012EE F3                              	REPE
  2007 000012EF A6                              	CMPSB
  2008 000012F0 0F 84 000000D5                  	JE	L368
  2009 000012F6 FC                              	CLD
  2010 000012F7 8D B5 FFFFFB74                  	LEA	ESI,DWORD [-1164+EBP]
  2011 000012FD BF [0000036D]                   	MOV	EDI,LC54
  2012 00001302 B9 00000006                     	MOV	ECX,6
  2013 00001307 F3                              	REPE
  2014 00001308 A6                              	CMPSB
  2015 00001309 0F 84 00000093                  	JE	L369
  2016 0000130F FC                              	CLD
  2017 00001310 8D B5 FFFFFB74                  	LEA	ESI,DWORD [-1164+EBP]
  2018 00001316 BF [00000373]                   	MOV	EDI,LC57
  2019 0000131B B9 00000005                     	MOV	ECX,5
  2020 00001320 F3                              	REPE
  2021 00001321 A6                              	CMPSB
  2022 00001322 74 3E                           	JE	L370
  2023 00001324 FC                              	CLD
  2024 00001325 8D B5 FFFFFB74                  	LEA	ESI,DWORD [-1164+EBP]
  2025 0000132B BF [0000032F]                   	MOV	EDI,LC41
  2026 00001330 B9 00000005                     	MOV	ECX,5
  2027 00001335 F3                              	REPE
  2028 00001336 A6                              	CMPSB
  2029 00001337 75 1F                           	JNE	L371
  2030 00001339                                 L294:
  2031 00001339 8B 45 0C                        	MOV	EAX,DWORD [12+EBP]
  2032 0000133C 8B 95 FFFFF52C                  	MOV	EDX,DWORD [-2772+EBP]
  2033 00001342 80 3C 02 20                     	CMP	BYTE [EDX+EAX*1],32
  2034 00001346 0F 85 FFFFFC4B                  	JNE	L310
  2035 0000134C 42                              	INC	EDX
  2036 0000134D 89 95 FFFFF52C                  	MOV	DWORD [-2772+EBP],EDX
  2037 00001353 E9 FFFFFC3F                     	JMP	L310
  2038 00001358                                 L371:
  2039 00001358 68 [00000378]                   	PUSH	LC60
  2040 0000135D E9 FFFFFC10                     	JMP	L357
  2041 00001362                                 L370:
  2042 00001362 FF 35 [00000004]                	PUSH	DWORD [_setfdata]
  2043 00001368 E8 [00000000]                   	CALL	_myfsave
  2044 0000136D 5A                              	POP	EDX
  2045 0000136E 40                              	INC	EAX
  2046 0000136F 74 0A                           	JE	L372
  2047 00001371 68 [00000389]                   	PUSH	LC59
  2048 00001376 E9 FFFFFBF7                     	JMP	L357
  2049 0000137B                                 L372:
  2050 0000137B 68 [000003A7]                   	PUSH	LC58
  2051 00001380 8D 9D FFFFFB84                  	LEA	EBX,DWORD [-1148+EBP]
  2052 00001386 53                              	PUSH	EBX
  2053 00001387 E8 [00000000]                   	CALL	_sprintf
  2054 0000138C 53                              	PUSH	EBX
  2055 0000138D FF 75 08                        	PUSH	DWORD [8+EBP]
  2056 00001390 E8 FFFFF207                     	CALL	_cons_putstr
  2057 00001395 FF 75 08                        	PUSH	DWORD [8+EBP]
  2058 00001398 E8 FFFFF0DA                     	CALL	_cons_newline
  2059 0000139D 83 C4 14                        	ADD	ESP,20
  2060 000013A0 EB 97                           	JMP	L294
  2061 000013A2                                 L369:
  2062 000013A2 68 [000003E5]                   	PUSH	LC55
  2063 000013A7 E8 FFFFEC54                     	CALL	_debug_print
  2064 000013AC FF 35 [00000004]                	PUSH	DWORD [_setfdata]
  2065 000013B2 E8 [00000000]                   	CALL	_myfclose
  2066 000013B7 68 [000003F6]                   	PUSH	LC56
  2067 000013BC C7 05 [00000004] 00000000       	MOV	DWORD [_setfdata],0
  2068 000013C6 E9 FFFFFBA7                     	JMP	L357
  2069 000013CB                                 L368:
  2070 000013CB 68 [0000040F]                   	PUSH	LC50
  2071 000013D0 8D B5 FFFFF934                  	LEA	ESI,DWORD [-1740+EBP]
  2072 000013D6 8D 9D FFFFFB84                  	LEA	EBX,DWORD [-1148+EBP]
  2073 000013DC E8 FFFFEC1F                     	CALL	_debug_print
  2074 000013E1 FF 35 [00000004]                	PUSH	DWORD [_setfdata]
  2075 000013E7 56                              	PUSH	ESI
  2076 000013E8 E8 [00000000]                   	CALL	_myfread
  2077 000013ED A1 [00000004]                   	MOV	EAX,DWORD [_setfdata]
  2078 000013F2 0F B6 00                        	MOVZX	EAX,BYTE [EAX]
  2079 000013F5 50                              	PUSH	EAX
  2080 000013F6 68 [0000041F]                   	PUSH	LC51
  2081 000013FB 53                              	PUSH	EBX
  2082 000013FC E8 [00000000]                   	CALL	_sprintf
  2083 00001401 53                              	PUSH	EBX
  2084 00001402 E8 FFFFEBF9                     	CALL	_debug_print
  2085 00001407 56                              	PUSH	ESI
  2086 00001408 68 [0000043B]                   	PUSH	LC52
  2087 0000140D 53                              	PUSH	EBX
  2088 0000140E E8 [00000000]                   	CALL	_sprintf
  2089 00001413 83 C4 28                        	ADD	ESP,40
  2090 00001416 53                              	PUSH	EBX
  2091 00001417 FF 75 08                        	PUSH	DWORD [8+EBP]
  2092 0000141A E8 FFFFF17D                     	CALL	_cons_putstr
  2093 0000141F FF 35 [00000004]                	PUSH	DWORD [_setfdata]
  2094 00001425 E8 [00000000]                   	CALL	_get_size_myfdata
  2095 0000142A 59                              	POP	ECX
  2096 0000142B E9 FFFFFC2D                     	JMP	L351
  2097 00001430                                 L367:
  2098 00001430 68 [00000444]                   	PUSH	LC48
  2099 00001435 E8 FFFFEBC6                     	CALL	_debug_print
  2100 0000143A C6 85 FFFFF52B 04               	MOV	BYTE [-2773+EBP],4
  2101 00001441                                 L347:
  2102 00001441 5B                              	POP	EBX
  2103 00001442 E9 FFFFFEF2                     	JMP	L294
  2104 00001447                                 L366:
  2105 00001447 68 [00000453]                   	PUSH	LC46
  2106 0000144C E8 FFFFEBAF                     	CALL	_debug_print
  2107 00001451 C6 85 FFFFF52B 02               	MOV	BYTE [-2773+EBP],2
  2108 00001458 EB E7                           	JMP	L347
  2109 0000145A                                 L365:
  2110 0000145A 68 [00000465]                   	PUSH	LC44
  2111 0000145F E8 FFFFEB9C                     	CALL	_debug_print
  2112 00001464 68 [0000000A]                   	PUSH	LC1
  2113 00001469 FF 35 [00000004]                	PUSH	DWORD [_setfdata]
  2114 0000146F C6 85 FFFFF52B 01               	MOV	BYTE [-2773+EBP],1
  2115 00001476 E8 [00000000]                   	CALL	_myfwrite
  2116 0000147B 83 C4 0C                        	ADD	ESP,12
  2117 0000147E E9 FFFFFEB6                     	JMP	L294
  2118 00001483                                 L364:
  2119 00001483 68 [00000476]                   	PUSH	LC42
  2120 00001488 E8 FFFFEB73                     	CALL	_debug_print
  2121 0000148D 5E                              	POP	ESI
  2122 0000148E C6 85 FFFFF52B 08               	MOV	BYTE [-2773+EBP],8
  2123 00001495 E9 FFFFFDDC                     	JMP	L291
  2124 0000149A                                 L345:
  2125 0000149A 68 [00000486]                   	PUSH	LC40
  2126 0000149F E9 FFFFFACE                     	JMP	L357
  2127 000014A4                                 L283:
  2128 000014A4 8B 4D 0C                        	MOV	ECX,DWORD [12+EBP]
  2129 000014A7 FF 85 FFFFF52C                  	INC	DWORD [-2772+EBP]
  2130 000014AD 8B 85 FFFFF52C                  	MOV	EAX,DWORD [-2772+EBP]
  2131 000014B3 80 3C 08 20                     	CMP	BYTE [EAX+ECX*1],32
  2132 000014B7 74 EB                           	JE	L283
  2133 000014B9 E9 FFFFFA8A                     	JMP	L339
  2134                                          [SECTION .data]
  2135 0000049B                                 LC71:
  2136 0000049B 64 69 72 65 63 74 6F 72 79 20   	DB	"directory name shoule be within 8 letters.",0x0A,0x00
       000004A5 6E 61 6D 65 20 73 68 6F 75 6C 
       000004AF 65 20 62 65 20 77 69 74 68 69 
       000004B9 6E 20 38 20 6C 65 74 74 65 72 
       000004C3 73 2E 0A 00 
  2137 000004C7                                 LC72:
  2138 000004C7 74 68 69 73 20 64 69 72 65 63   	DB	"this directory name is already used, please use other name.",0x0A,0x00
       000004D1 74 6F 72 79 20 6E 61 6D 65 20 
       000004DB 69 73 20 61 6C 72 65 61 64 79 
       000004E5 20 75 73 65 64 2C 20 70 6C 65 
       000004EF 61 73 65 20 75 73 65 20 6F 74 
       000004F9 68 65 72 20 6E 61 6D 65 2E 0A 
       00000503 00 
  2139 00000504                                 LC73:
  2140 00000504 09 6E 61 6D 65 20 3D 20 25 73   	DB	0x09,"name = %s",0x0A,0x09,"ext = %s",0x0A,0x09,"type = 0x%02x",0x0A,0x00
       0000050E 0A 09 65 78 74 20 3D 20 25 73 
       00000518 0A 09 74 79 70 65 20 3D 20 30 
       00000522 78 25 30 32 78 0A 00 
  2141 00000529                                 LC74:
  2142 00000529 63 72 65 61 74 65 64 20 64 69   	DB	"created directory: name = %s",0x0A,0x00
       00000533 72 65 63 74 6F 72 79 3A 20 6E 
       0000053D 61 6D 65 20 3D 20 25 73 0A 00 
  2143 00000547                                 LC75:
  2144 00000547 09 63 68 69 6C 64 20 64 69 72   	DB	0x09,"child dir address = 0x%08x",0x0A,0x00
       00000551 20 61 64 64 72 65 73 73 20 3D 
       0000055B 20 30 78 25 30 38 78 0A 00 
  2145 00000564                                 LC76:
  2146 00000564 09 74 79 70 65 3D 30 78 25 30   	DB	0x09,"type=0x%02x",0x0A,0x00
       0000056E 32 78 0A 00 
  2147 00000572                                 LC77:
  2148 00000572 09 63 68 69 6C 64 20 64 69 6E   	DB	0x09,"child dinfo addr = 0x%08x",0x0A,0x00
       0000057C 66 6F 20 61 64 64 72 20 3D 20 
       00000586 30 78 25 30 38 78 0A 00 
  2149 0000058E                                 LC78:
  2150 0000058E 09 63 68 69 6C 64 20 64 69 6E   	DB	0x09,"child dinfo name = %s",0x0A,0x00
       00000598 66 6F 20 6E 61 6D 65 20 3D 20 
       000005A2 25 73 0A 00 
  2151 000005A6                                 LC79:
  2152 000005A6 09 63 68 69 6C 64 20 64 69 6E   	DB	0x09,"child dinfo parent addr = 0x%08x",0x0A,0x00
       000005B0 66 6F 20 70 61 72 65 6E 74 20 
       000005BA 61 64 64 72 20 3D 20 30 78 25 
       000005C4 30 38 78 0A 00 
  2153                                          [SECTION .text]
  2154 000014BE                                 	GLOBAL	_cmd_mkdir
  2155 000014BE                                 _cmd_mkdir:
  2156 000014BE 55                              	PUSH	EBP
  2157 000014BF 89 E5                           	MOV	EBP,ESP
  2158 000014C1 57                              	PUSH	EDI
  2159 000014C2 56                              	PUSH	ESI
  2160 000014C3 53                              	PUSH	EBX
  2161 000014C4 31 DB                           	XOR	EBX,EBX
  2162 000014C6 83 EC 48                        	SUB	ESP,72
  2163 000014C9 8B 45 0C                        	MOV	EAX,DWORD [12+EBP]
  2164 000014CC 8B 55 08                        	MOV	EDX,DWORD [8+EBP]
  2165 000014CF 8D 70 06                        	LEA	ESI,DWORD [6+EAX]
  2166 000014D2 8B 52 14                        	MOV	EDX,DWORD [20+EDX]
  2167 000014D5 89 55 AC                        	MOV	DWORD [-84+EBP],EDX
  2168 000014D8 89 75 B0                        	MOV	DWORD [-80+EBP],ESI
  2169 000014DB 80 78 06 00                     	CMP	BYTE [6+EAX],0
  2170 000014DF 74 0A                           	JE	L400
  2171 000014E1                                 L378:
  2172 000014E1 43                              	INC	EBX
  2173 000014E2 8B 45 B0                        	MOV	EAX,DWORD [-80+EBP]
  2174 000014E5 80 3C 03 00                     	CMP	BYTE [EBX+EAX*1],0
  2175 000014E9 75 F6                           	JNE	L378
  2176 000014EB                                 L400:
  2177 000014EB 83 FB 08                        	CMP	EBX,8
  2178 000014EE 7E 27                           	JLE	L379
  2179 000014F0 68 [0000049B]                   	PUSH	LC71
  2180 000014F5 8D 5D B4                        	LEA	EBX,DWORD [-76+EBP]
  2181 000014F8 53                              	PUSH	EBX
  2182 000014F9 E8 [00000000]                   	CALL	_sprintf
  2183 000014FE 53                              	PUSH	EBX
  2184 000014FF FF 75 08                        	PUSH	DWORD [8+EBP]
  2185 00001502 E8 FFFFF095                     	CALL	_cons_putstr
  2186 00001507                                 L407:
  2187 00001507 FF 75 08                        	PUSH	DWORD [8+EBP]
  2188 0000150A E8 FFFFEF68                     	CALL	_cons_newline
  2189 0000150F 8D 65 F4                        	LEA	ESP,DWORD [-12+EBP]
  2190 00001512 5B                              	POP	EBX
  2191 00001513 5E                              	POP	ESI
  2192 00001514 5F                              	POP	EDI
  2193 00001515 5D                              	POP	EBP
  2194 00001516 C3                              	RET
  2195 00001517                                 L379:
  2196 00001517 6A 32                           	PUSH	50
  2197 00001519 FF 75 AC                        	PUSH	DWORD [-84+EBP]
  2198 0000151C FF 75 B0                        	PUSH	DWORD [-80+EBP]
  2199 0000151F E8 [00000000]                   	CALL	_myfinfo_search
  2200 00001524 83 C4 0C                        	ADD	ESP,12
  2201 00001527 89 C6                           	MOV	ESI,EAX
  2202 00001529 85 C0                           	TEST	EAX,EAX
  2203 0000152B 74 37                           	JE	L380
  2204 0000152D 68 [000004C7]                   	PUSH	LC72
  2205 00001532 8D 5D B4                        	LEA	EBX,DWORD [-76+EBP]
  2206 00001535 53                              	PUSH	EBX
  2207 00001536 E8 [00000000]                   	CALL	_sprintf
  2208 0000153B 53                              	PUSH	EBX
  2209 0000153C FF 75 08                        	PUSH	DWORD [8+EBP]
  2210 0000153F E8 FFFFF058                     	CALL	_cons_putstr
  2211 00001544 0F B6 46 0B                     	MOVZX	EAX,BYTE [11+ESI]
  2212 00001548 50                              	PUSH	EAX
  2213 00001549 8D 46 08                        	LEA	EAX,DWORD [8+ESI]
  2214 0000154C 50                              	PUSH	EAX
  2215 0000154D 56                              	PUSH	ESI
  2216 0000154E 68 [00000504]                   	PUSH	LC73
  2217 00001553 53                              	PUSH	EBX
  2218 00001554 E8 [00000000]                   	CALL	_sprintf
  2219 00001559 83 C4 24                        	ADD	ESP,36
  2220 0000155C                                 L406:
  2221 0000155C 53                              	PUSH	EBX
  2222 0000155D E8 FFFFEA9E                     	CALL	_debug_print
  2223 00001562 EB A3                           	JMP	L407
  2224 00001564                                 L380:
  2225 00001564 31 DB                           	XOR	EBX,EBX
  2226 00001566 8B 45 AC                        	MOV	EAX,DWORD [-84+EBP]
  2227 00001569                                 L387:
  2228 00001569 80 38 00                        	CMP	BYTE [EAX],0
  2229 0000156C 74 09                           	JE	L383
  2230 0000156E 43                              	INC	EBX
  2231 0000156F 83 C0 28                        	ADD	EAX,40
  2232 00001572 83 FB 31                        	CMP	EBX,49
  2233 00001575 7E F2                           	JLE	L387
  2234 00001577                                 L383:
  2235 00001577 8B 55 B0                        	MOV	EDX,DWORD [-80+EBP]
  2236 0000157A 31 C9                           	XOR	ECX,ECX
  2237 0000157C 80 3A 00                        	CMP	BYTE [EDX],0
  2238 0000157F 74 29                           	JE	L403
  2239 00001581                                 L393:
  2240 00001581 8B 75 B0                        	MOV	ESI,DWORD [-80+EBP]
  2241 00001584 8A 14 31                        	MOV	DL,BYTE [ECX+ESI*1]
  2242 00001587 8D 42 9F                        	LEA	EAX,DWORD [-97+EDX]
  2243 0000158A 3C 19                           	CMP	AL,25
  2244 0000158C 77 06                           	JA	L392
  2245 0000158E 8D 42 E0                        	LEA	EAX,DWORD [-32+EDX]
  2246 00001591 88 04 31                        	MOV	BYTE [ECX+ESI*1],AL
  2247 00001594                                 L392:
  2248 00001594 6B C3 28                        	IMUL	EAX,EBX,40
  2249 00001597 8B 75 B0                        	MOV	ESI,DWORD [-80+EBP]
  2250 0000159A 03 45 AC                        	ADD	EAX,DWORD [-84+EBP]
  2251 0000159D 8A 14 31                        	MOV	DL,BYTE [ECX+ESI*1]
  2252 000015A0 88 14 01                        	MOV	BYTE [ECX+EAX*1],DL
  2253 000015A3 41                              	INC	ECX
  2254 000015A4 80 3C 31 00                     	CMP	BYTE [ECX+ESI*1],0
  2255 000015A8 75 D7                           	JNE	L393
  2256 000015AA                                 L403:
  2257 000015AA 83 F9 07                        	CMP	ECX,7
  2258 000015AD 7F 10                           	JG	L405
  2259 000015AF                                 L398:
  2260 000015AF 6B C3 28                        	IMUL	EAX,EBX,40
  2261 000015B2 03 45 AC                        	ADD	EAX,DWORD [-84+EBP]
  2262 000015B5 C6 04 01 20                     	MOV	BYTE [ECX+EAX*1],32
  2263 000015B9 41                              	INC	ECX
  2264 000015BA 83 F9 07                        	CMP	ECX,7
  2265 000015BD 7E F0                           	JLE	L398
  2266 000015BF                                 L405:
  2267 000015BF 6B FB 28                        	IMUL	EDI,EBX,40
  2268 000015C2 8B 45 AC                        	MOV	EAX,DWORD [-84+EBP]
  2269 000015C5 8D 5D B4                        	LEA	EBX,DWORD [-76+EBP]
  2270 000015C8 8D 34 38                        	LEA	ESI,DWORD [EAX+EDI*1]
  2271 000015CB E8 [00000000]                   	CALL	_get_newdinfo
  2272 000015D0 8B 55 AC                        	MOV	EDX,DWORD [-84+EBP]
  2273 000015D3 89 46 20                        	MOV	DWORD [32+ESI],EAX
  2274 000015D6 8D 46 10                        	LEA	EAX,DWORD [16+ESI]
  2275 000015D9 C6 44 3A 0B 10                  	MOV	BYTE [11+EDX+EDI*1],16
  2276 000015DE C7 46 1C 00000028               	MOV	DWORD [28+ESI],40
  2277 000015E5 C7 46 24 00000000               	MOV	DWORD [36+ESI],0
  2278 000015EC 66 C7 40 0A 0000                	MOV	WORD [10+EAX],0
  2279 000015F2 66 C7 40 08 0000                	MOV	WORD [8+EAX],0
  2280 000015F8 56                              	PUSH	ESI
  2281 000015F9 68 [00000529]                   	PUSH	LC74
  2282 000015FE 53                              	PUSH	EBX
  2283 000015FF E8 [00000000]                   	CALL	_sprintf
  2284 00001604 53                              	PUSH	EBX
  2285 00001605 FF 75 08                        	PUSH	DWORD [8+EBP]
  2286 00001608 E8 FFFFEF8F                     	CALL	_cons_putstr
  2287 0000160D FF 76 20                        	PUSH	DWORD [32+ESI]
  2288 00001610 68 [00000547]                   	PUSH	LC75
  2289 00001615 53                              	PUSH	EBX
  2290 00001616 E8 [00000000]                   	CALL	_sprintf
  2291 0000161B 83 C4 20                        	ADD	ESP,32
  2292 0000161E 53                              	PUSH	EBX
  2293 0000161F E8 FFFFE9DC                     	CALL	_debug_print
  2294 00001624 8B 55 AC                        	MOV	EDX,DWORD [-84+EBP]
  2295 00001627 0F B6 44 3A 0B                  	MOVZX	EAX,BYTE [11+EDX+EDI*1]
  2296 0000162C 50                              	PUSH	EAX
  2297 0000162D 68 [00000564]                   	PUSH	LC76
  2298 00001632 53                              	PUSH	EBX
  2299 00001633 E8 [00000000]                   	CALL	_sprintf
  2300 00001638 53                              	PUSH	EBX
  2301 00001639 E8 FFFFE9C2                     	CALL	_debug_print
  2302 0000163E 8B 76 20                        	MOV	ESI,DWORD [32+ESI]
  2303 00001641 89 B6 000007DC                  	MOV	DWORD [2012+ESI],ESI
  2304 00001647 8D BE 000007D0                  	LEA	EDI,DWORD [2000+ESI]
  2305 0000164D FF 75 B0                        	PUSH	DWORD [-80+EBP]
  2306 00001650 57                              	PUSH	EDI
  2307 00001651 E8 [00000000]                   	CALL	_sprintf
  2308 00001656 8B 55 AC                        	MOV	EDX,DWORD [-84+EBP]
  2309 00001659 8B 82 000007DC                  	MOV	EAX,DWORD [2012+EDX]
  2310 0000165F 89 86 000007D8                  	MOV	DWORD [2008+ESI],EAX
  2311 00001665 FF B6 000007DC                  	PUSH	DWORD [2012+ESI]
  2312 0000166B 68 [00000572]                   	PUSH	LC77
  2313 00001670 53                              	PUSH	EBX
  2314 00001671 E8 [00000000]                   	CALL	_sprintf
  2315 00001676 83 C4 28                        	ADD	ESP,40
  2316 00001679 53                              	PUSH	EBX
  2317 0000167A E8 FFFFE981                     	CALL	_debug_print
  2318 0000167F 57                              	PUSH	EDI
  2319 00001680 68 [0000058E]                   	PUSH	LC78
  2320 00001685 53                              	PUSH	EBX
  2321 00001686 E8 [00000000]                   	CALL	_sprintf
  2322 0000168B 53                              	PUSH	EBX
  2323 0000168C E8 FFFFE96F                     	CALL	_debug_print
  2324 00001691 FF B6 000007D8                  	PUSH	DWORD [2008+ESI]
  2325 00001697 68 [000005A6]                   	PUSH	LC79
  2326 0000169C 53                              	PUSH	EBX
  2327 0000169D E8 [00000000]                   	CALL	_sprintf
  2328 000016A2 83 C4 20                        	ADD	ESP,32
  2329 000016A5 E9 FFFFFEB2                     	JMP	L406
  2330                                          [SECTION .data]
  2331 000005C9                                 LC82:
  2332 000005C9 74 68 69 73 20 66 69 6C 65 20   	DB	"this file name is already used, please use other name.",0x0A,0x00
       000005D3 6E 61 6D 65 20 69 73 20 61 6C 
       000005DD 72 65 61 64 79 20 75 73 65 64 
       000005E7 2C 20 70 6C 65 61 73 65 20 75 
       000005F1 73 65 20 6F 74 68 65 72 20 6E 
       000005FB 61 6D 65 2E 0A 00 
  2333 00000601                                 LC83:
  2334 00000601 63 72 65 61 74 65 64 20 66 69   	DB	"created file name = %s[EOF]",0x0A,0x00
       0000060B 6C 65 20 6E 61 6D 65 20 3D 20 
       00000615 25 73 5B 45 4F 46 5D 0A 00 
  2335 0000061E                                 LC84:
  2336 0000061E 66 69 6C 65 20 6E 61 6D 65 20   	DB	"file name = %s",0x0A,0x00
       00000628 3D 20 25 73 0A 00 
  2337 0000062E                                 LC85:
  2338 0000062E 66 69 6C 65 20 74 79 70 65 3D   	DB	"file type=0x%02x",0x0A,0x00
       00000638 30 78 25 30 32 78 0A 00 
  2339 00000640                                 LC80:
  2340 00000640 66 69 6C 65 20 6E 61 6D 65 20   	DB	"file name should be within 8 letters,",0x0A,0x00
       0000064A 73 68 6F 75 6C 64 20 62 65 20 
       00000654 77 69 74 68 69 6E 20 38 20 6C 
       0000065E 65 74 74 65 72 73 2C 0A 00 
  2341 00000667                                 LC81:
  2342 00000667 61 6E 64 20 65 78 74 65 6E 73   	DB	"and extension should be within 3 letters.",0x0A,0x00
       00000671 69 6F 6E 20 73 68 6F 75 6C 64 
       0000067B 20 62 65 20 77 69 74 68 69 6E 
       00000685 20 33 20 6C 65 74 74 65 72 73 
       0000068F 2E 0A 00 
  2343                                          [SECTION .text]
  2344 000016AA                                 	GLOBAL	_cmd_mkfile
  2345 000016AA                                 _cmd_mkfile:
  2346 000016AA 55                              	PUSH	EBP
  2347 000016AB 31 C9                           	XOR	ECX,ECX
  2348 000016AD 89 E5                           	MOV	EBP,ESP
  2349 000016AF 57                              	PUSH	EDI
  2350 000016B0 56                              	PUSH	ESI
  2351 000016B1 53                              	PUSH	EBX
  2352 000016B2 81 EC 00000454                  	SUB	ESP,1108
  2353 000016B8 8B 45 08                        	MOV	EAX,DWORD [8+EBP]
  2354 000016BB 8B 75 0C                        	MOV	ESI,DWORD [12+EBP]
  2355 000016BE 83 C6 07                        	ADD	ESI,7
  2356 000016C1 8B 78 14                        	MOV	EDI,DWORD [20+EAX]
  2357 000016C4                                 L413:
  2358 000016C4 C6 44 0D A4 20                  	MOV	BYTE [-92+EBP+ECX*1],32
  2359 000016C9 41                              	INC	ECX
  2360 000016CA 83 F9 0A                        	CMP	ECX,10
  2361 000016CD 7E F5                           	JLE	L413
  2362 000016CF 31 C9                           	XOR	ECX,ECX
  2363 000016D1 31 DB                           	XOR	EBX,EBX
  2364 000016D3 80 3E 00                        	CMP	BYTE [ESI],0
  2365 000016D6 74 2F                           	JE	L443
  2366 000016D8                                 L422:
  2367 000016D8 83 F9 0A                        	CMP	ECX,10
  2368 000016DB 0F 8F 00000185                  	JG	L449
  2369 000016E1 8A 14 33                        	MOV	DL,BYTE [EBX+ESI*1]
  2370 000016E4 80 FA 2E                        	CMP	DL,46
  2371 000016E7 0F 84 00000166                  	JE	L451
  2372 000016ED                                 L419:
  2373 000016ED 8D 42 9F                        	LEA	EAX,DWORD [-97+EDX]
  2374 000016F0 88 54 0D A4                     	MOV	BYTE [-92+EBP+ECX*1],DL
  2375 000016F4 3C 19                           	CMP	AL,25
  2376 000016F6 77 07                           	JA	L421
  2377 000016F8 8D 42 E0                        	LEA	EAX,DWORD [-32+EDX]
  2378 000016FB 88 44 0D A4                     	MOV	BYTE [-92+EBP+ECX*1],AL
  2379 000016FF                                 L421:
  2380 000016FF 41                              	INC	ECX
  2381 00001700                                 L416:
  2382 00001700 43                              	INC	EBX
  2383 00001701 80 3C 33 00                     	CMP	BYTE [EBX+ESI*1],0
  2384 00001705 75 D1                           	JNE	L422
  2385 00001707                                 L443:
  2386 00001707 6A 32                           	PUSH	50
  2387 00001709 8D 45 A4                        	LEA	EAX,DWORD [-92+EBP]
  2388 0000170C 57                              	PUSH	EDI
  2389 0000170D 50                              	PUSH	EAX
  2390 0000170E E8 [00000000]                   	CALL	_myfinfo_search
  2391 00001713 83 C4 0C                        	ADD	ESP,12
  2392 00001716 89 C6                           	MOV	ESI,EAX
  2393 00001718 85 C0                           	TEST	EAX,EAX
  2394 0000171A 74 50                           	JE	L423
  2395 0000171C 68 [000005C9]                   	PUSH	LC82
  2396 00001721 8D 5D B4                        	LEA	EBX,DWORD [-76+EBP]
  2397 00001724 53                              	PUSH	EBX
  2398 00001725 E8 [00000000]                   	CALL	_sprintf
  2399 0000172A 53                              	PUSH	EBX
  2400 0000172B FF 75 08                        	PUSH	DWORD [8+EBP]
  2401 0000172E E8 FFFFEE69                     	CALL	_cons_putstr
  2402 00001733 0F B6 46 0B                     	MOVZX	EAX,BYTE [11+ESI]
  2403 00001737 50                              	PUSH	EAX
  2404 00001738 8D 46 08                        	LEA	EAX,DWORD [8+ESI]
  2405 0000173B 50                              	PUSH	EAX
  2406 0000173C 56                              	PUSH	ESI
  2407 0000173D 68 [00000504]                   	PUSH	LC73
  2408 00001742 53                              	PUSH	EBX
  2409 00001743 E8 [00000000]                   	CALL	_sprintf
  2410 00001748 83 C4 24                        	ADD	ESP,36
  2411 0000174B 53                              	PUSH	EBX
  2412 0000174C FF 75 08                        	PUSH	DWORD [8+EBP]
  2413 0000174F E8 FFFFEE48                     	CALL	_cons_putstr
  2414 00001754 FF 75 08                        	PUSH	DWORD [8+EBP]
  2415 00001757 E8 FFFFED1B                     	CALL	_cons_newline
  2416 0000175C                                 L450:
  2417 0000175C FF 75 08                        	PUSH	DWORD [8+EBP]
  2418 0000175F E8 FFFFED13                     	CALL	_cons_newline
  2419 00001764 8D 65 F4                        	LEA	ESP,DWORD [-12+EBP]
  2420 00001767 5B                              	POP	EBX
  2421 00001768 5E                              	POP	ESI
  2422 00001769 5F                              	POP	EDI
  2423 0000176A 5D                              	POP	EBP
  2424 0000176B C3                              	RET
  2425 0000176C                                 L423:
  2426 0000176C 31 DB                           	XOR	EBX,EBX
  2427 0000176E 89 F8                           	MOV	EAX,EDI
  2428 00001770                                 L429:
  2429 00001770 80 38 00                        	CMP	BYTE [EAX],0
  2430 00001773 74 09                           	JE	L425
  2431 00001775 43                              	INC	EBX
  2432 00001776 83 C0 28                        	ADD	EAX,40
  2433 00001779 83 FB 31                        	CMP	EBX,49
  2434 0000177C 7E F2                           	JLE	L429
  2435 0000177E                                 L425:
  2436 0000177E 31 C9                           	XOR	ECX,ECX
  2437 00001780                                 L434:
  2438 00001780 6B C3 28                        	IMUL	EAX,EBX,40
  2439 00001783 01 F8                           	ADD	EAX,EDI
  2440 00001785 8A 54 0D A4                     	MOV	DL,BYTE [-92+EBP+ECX*1]
  2441 00001789 88 14 01                        	MOV	BYTE [ECX+EAX*1],DL
  2442 0000178C 41                              	INC	ECX
  2443 0000178D 83 F9 07                        	CMP	ECX,7
  2444 00001790 7E EE                           	JLE	L434
  2445 00001792 31 C9                           	XOR	ECX,ECX
  2446 00001794                                 L439:
  2447 00001794 6B D3 28                        	IMUL	EDX,EBX,40
  2448 00001797 89 D6                           	MOV	ESI,EDX
  2449 00001799 89 95 FFFFFBA0                  	MOV	DWORD [-1120+EBP],EDX
  2450 0000179F 01 FE                           	ADD	ESI,EDI
  2451 000017A1 8A 44 0D AC                     	MOV	AL,BYTE [-84+EBP+ECX*1]
  2452 000017A5 88 44 31 08                     	MOV	BYTE [8+ECX+ESI*1],AL
  2453 000017A9 41                              	INC	ECX
  2454 000017AA 83 F9 02                        	CMP	ECX,2
  2455 000017AD 7E E5                           	JLE	L439
  2456 000017AF 8D 46 10                        	LEA	EAX,DWORD [16+ESI]
  2457 000017B2 8D 5D B4                        	LEA	EBX,DWORD [-76+EBP]
  2458 000017B5 C6 44 17 0B 20                  	MOV	BYTE [11+EDI+EDX*1],32
  2459 000017BA 66 C7 40 0A 0000                	MOV	WORD [10+EAX],0
  2460 000017C0 66 C7 40 08 0000                	MOV	WORD [8+EAX],0
  2461 000017C6 C7 46 1C 00000000               	MOV	DWORD [28+ESI],0
  2462 000017CD C6 85 FFFFFBA4 FF               	MOV	BYTE [-1116+EBP],-1
  2463 000017D4 8B 87 000007DC                  	MOV	EAX,DWORD [2012+EDI]
  2464 000017DA 89 85 FFFFFBB8                  	MOV	DWORD [-1096+EBP],EAX
  2465 000017E0 8D 85 FFFFFBA4                  	LEA	EAX,DWORD [-1116+EBP]
  2466 000017E6 50                              	PUSH	EAX
  2467 000017E7 E8 [00000000]                   	CALL	_get_newfdata
  2468 000017EC C6 00 01                        	MOV	BYTE [EAX],1
  2469 000017EF 89 40 10                        	MOV	DWORD [16+EAX],EAX
  2470 000017F2 8B 97 000007DC                  	MOV	EDX,DWORD [2012+EDI]
  2471 000017F8 89 46 24                        	MOV	DWORD [36+ESI],EAX
  2472 000017FB 89 50 14                        	MOV	DWORD [20+EAX],EDX
  2473 000017FE 8D 45 A4                        	LEA	EAX,DWORD [-92+EBP]
  2474 00001801 50                              	PUSH	EAX
  2475 00001802 68 [00000601]                   	PUSH	LC83
  2476 00001807 53                              	PUSH	EBX
  2477 00001808 E8 [00000000]                   	CALL	_sprintf
  2478 0000180D 53                              	PUSH	EBX
  2479 0000180E FF 75 08                        	PUSH	DWORD [8+EBP]
  2480 00001811 E8 FFFFED86                     	CALL	_cons_putstr
  2481 00001816 56                              	PUSH	ESI
  2482 00001817 68 [0000061E]                   	PUSH	LC84
  2483 0000181C 53                              	PUSH	EBX
  2484 0000181D E8 [00000000]                   	CALL	_sprintf
  2485 00001822 83 C4 24                        	ADD	ESP,36
  2486 00001825 53                              	PUSH	EBX
  2487 00001826 FF 75 08                        	PUSH	DWORD [8+EBP]
  2488 00001829 E8 FFFFED6E                     	CALL	_cons_putstr
  2489 0000182E 8B 95 FFFFFBA0                  	MOV	EDX,DWORD [-1120+EBP]
  2490 00001834 0F B6 44 17 0B                  	MOVZX	EAX,BYTE [11+EDI+EDX*1]
  2491 00001839 50                              	PUSH	EAX
  2492 0000183A 68 [0000062E]                   	PUSH	LC85
  2493 0000183F 53                              	PUSH	EBX
  2494 00001840 E8 [00000000]                   	CALL	_sprintf
  2495 00001845 53                              	PUSH	EBX
  2496 00001846 FF 75 08                        	PUSH	DWORD [8+EBP]
  2497 00001849 E8 FFFFED4E                     	CALL	_cons_putstr
  2498 0000184E E9 FFFFFF09                     	JMP	L450
  2499 00001853                                 L451:
  2500 00001853 83 F9 08                        	CMP	ECX,8
  2501 00001856 0F 8F FFFFFE91                  	JG	L419
  2502 0000185C B9 00000008                     	MOV	ECX,8
  2503 00001861 E9 FFFFFE9A                     	JMP	L416
  2504 00001866                                 L449:
  2505 00001866 68 [00000640]                   	PUSH	LC80
  2506 0000186B 8D 5D B4                        	LEA	EBX,DWORD [-76+EBP]
  2507 0000186E 53                              	PUSH	EBX
  2508 0000186F E8 [00000000]                   	CALL	_sprintf
  2509 00001874 53                              	PUSH	EBX
  2510 00001875 FF 75 08                        	PUSH	DWORD [8+EBP]
  2511 00001878 E8 FFFFED1F                     	CALL	_cons_putstr
  2512 0000187D 68 [00000667]                   	PUSH	LC81
  2513 00001882 53                              	PUSH	EBX
  2514 00001883 E8 [00000000]                   	CALL	_sprintf
  2515 00001888 53                              	PUSH	EBX
  2516 00001889 FF 75 08                        	PUSH	DWORD [8+EBP]
  2517 0000188C E8 FFFFED0B                     	CALL	_cons_putstr
  2518 00001891 83 C4 20                        	ADD	ESP,32
  2519 00001894 E9 FFFFFEC3                     	JMP	L450
  2520                                          [SECTION .data]
  2521 00000692                                 LC86:
  2522 00000692 20 20 20 20 6C 6F 67 20 63 6F   	DB	"    log cons",0x0A,"mem:%d %d",0x0A,"sht:%d %d",0x0A,0x00
       0000069C 6E 73 0A 6D 65 6D 3A 25 64 20 
       000006A6 25 64 0A 73 68 74 3A 25 64 20 
       000006B0 25 64 0A 00 
  2523                                          [SECTION .text]
  2524 00001899                                 	GLOBAL	_cmd_setlog
  2525 00001899                                 _cmd_setlog:
  2526 00001899 55                              	PUSH	EBP
  2527 0000189A 89 E5                           	MOV	EBP,ESP
  2528 0000189C 53                              	PUSH	EBX
  2529 0000189D 83 EC 70                        	SUB	ESP,112
  2530 000018A0 8B 45 08                        	MOV	EAX,DWORD [8+EBP]
  2531 000018A3 8D 5D 8C                        	LEA	EBX,DWORD [-116+EBP]
  2532 000018A6 A3 [00000ABC]                   	MOV	DWORD [_log],EAX
  2533 000018AB FF 30                           	PUSH	DWORD [EAX]
  2534 000018AD FF 30                           	PUSH	DWORD [EAX]
  2535 000018AF 8D 45 08                        	LEA	EAX,DWORD [8+EBP]
  2536 000018B2 50                              	PUSH	EAX
  2537 000018B3 68 [00000ABC]                   	PUSH	_log
  2538 000018B8 68 [00000692]                   	PUSH	LC86
  2539 000018BD 53                              	PUSH	EBX
  2540 000018BE E8 [00000000]                   	CALL	_sprintf
  2541 000018C3 53                              	PUSH	EBX
  2542 000018C4 FF 35 [00000ABC]                	PUSH	DWORD [_log]
  2543 000018CA E8 FFFFECFB                     	CALL	_cons_putstr0
  2544 000018CF 83 C4 20                        	ADD	ESP,32
  2545 000018D2 FF 35 [00000ABC]                	PUSH	DWORD [_log]
  2546 000018D8 E8 FFFFEB9A                     	CALL	_cons_newline
  2547 000018DD 8B 5D FC                        	MOV	EBX,DWORD [-4+EBP]
  2548 000018E0 C9                              	LEAVE
  2549 000018E1 C3                              	RET
  2550                                          [SECTION .data]
  2551 000006B4                                 LC87:
  2552 000006B4 66 72 65 65 73 20 20 25 64 0A   	DB	"frees  %d",0x0A,0x00
       000006BE 00 
  2553 000006BF                                 LC89:
  2554 000006BF 74 6F 74 61 6C 20 20 20 25 64   	DB	"total   %dMB",0x0A,"free %dKB",0x0A,0x0A,0x00
       000006C9 4D 42 0A 66 72 65 65 20 25 64 
       000006D3 4B 42 0A 0A 00 
  2555 000006D8                                 LC88:
  2556 000006D8 28 25 64 29 20 73 69 7A 65 3D   	DB	"(%d) size=%dKB addr=0x%x",0x0A,0x00
       000006E2 25 64 4B 42 20 61 64 64 72 3D 
       000006EC 30 78 25 78 0A 00 
  2557                                          [SECTION .text]
  2558 000018E2                                 	GLOBAL	_cmd_mem
  2559 000018E2                                 _cmd_mem:
  2560 000018E2 55                              	PUSH	EBP
  2561 000018E3 89 E5                           	MOV	EBP,ESP
  2562 000018E5 57                              	PUSH	EDI
  2563 000018E6 56                              	PUSH	ESI
  2564 000018E7 31 F6                           	XOR	ESI,ESI
  2565 000018E9 53                              	PUSH	EBX
  2566 000018EA 8D 5D B4                        	LEA	EBX,DWORD [-76+EBP]
  2567 000018ED 83 EC 40                        	SUB	ESP,64
  2568 000018F0 FF 35 003C0000                  	PUSH	DWORD [3932160]
  2569 000018F6 68 [000006B4]                   	PUSH	LC87
  2570 000018FB 8B 7D 08                        	MOV	EDI,DWORD [8+EBP]
  2571 000018FE 53                              	PUSH	EBX
  2572 000018FF E8 [00000000]                   	CALL	_sprintf
  2573 00001904 53                              	PUSH	EBX
  2574 00001905 57                              	PUSH	EDI
  2575 00001906 E8 FFFFECBF                     	CALL	_cons_putstr0
  2576 0000190B 83 C4 14                        	ADD	ESP,20
  2577 0000190E 3B 35 003C0000                  	CMP	ESI,DWORD [3932160]
  2578 00001914 72 3B                           	JB	L458
  2579 00001916                                 L460:
  2580 00001916 68 003C0000                     	PUSH	3932160
  2581 0000191B E8 [00000000]                   	CALL	_memman_total
  2582 00001920 BA 00100000                     	MOV	EDX,1048576
  2583 00001925 C1 E8 0A                        	SHR	EAX,10
  2584 00001928 89 D3                           	MOV	EBX,EDX
  2585 0000192A 89 04 24                        	MOV	DWORD [ESP],EAX
  2586 0000192D 8B 45 0C                        	MOV	EAX,DWORD [12+EBP]
  2587 00001930 99                              	CDQ
  2588 00001931 F7 FB                           	IDIV	EBX
  2589 00001933 50                              	PUSH	EAX
  2590 00001934 8D 5D B4                        	LEA	EBX,DWORD [-76+EBP]
  2591 00001937 68 [000006BF]                   	PUSH	LC89
  2592 0000193C 53                              	PUSH	EBX
  2593 0000193D E8 [00000000]                   	CALL	_sprintf
  2594 00001942 53                              	PUSH	EBX
  2595 00001943 57                              	PUSH	EDI
  2596 00001944 E8 FFFFEC81                     	CALL	_cons_putstr0
  2597 00001949 8D 65 F4                        	LEA	ESP,DWORD [-12+EBP]
  2598 0000194C 5B                              	POP	EBX
  2599 0000194D 5E                              	POP	ESI
  2600 0000194E 5F                              	POP	EDI
  2601 0000194F 5D                              	POP	EBP
  2602 00001950 C3                              	RET
  2603 00001951                                 L458:
  2604 00001951 FF 34 F5 003C0010               	PUSH	DWORD [3932176+ESI*8]
  2605 00001958 8B 04 F5 003C0014               	MOV	EAX,DWORD [3932180+ESI*8]
  2606 0000195F 8D 5D B4                        	LEA	EBX,DWORD [-76+EBP]
  2607 00001962 C1 E8 0A                        	SHR	EAX,10
  2608 00001965 50                              	PUSH	EAX
  2609 00001966 56                              	PUSH	ESI
  2610 00001967 46                              	INC	ESI
  2611 00001968 68 [000006D8]                   	PUSH	LC88
  2612 0000196D 53                              	PUSH	EBX
  2613 0000196E E8 [00000000]                   	CALL	_sprintf
  2614 00001973 53                              	PUSH	EBX
  2615 00001974 57                              	PUSH	EDI
  2616 00001975 E8 FFFFEC22                     	CALL	_cons_putstr
  2617 0000197A 83 C4 1C                        	ADD	ESP,28
  2618 0000197D 3B 35 003C0000                  	CMP	ESI,DWORD [3932160]
  2619 00001983 72 CC                           	JB	L458
  2620 00001985 EB 8F                           	JMP	L460
  2621 00001987                                 	GLOBAL	_cmd_memmap
  2622 00001987                                 _cmd_memmap:
  2623 00001987 55                              	PUSH	EBP
  2624 00001988 89 E5                           	MOV	EBP,ESP
  2625 0000198A 53                              	PUSH	EBX
  2626 0000198B 83 EC 40                        	SUB	ESP,64
  2627 0000198E 68 003C0000                     	PUSH	3932160
  2628 00001993 E8 [00000000]                   	CALL	_memman_total
  2629 00001998 BA 00100000                     	MOV	EDX,1048576
  2630 0000199D C1 E8 0A                        	SHR	EAX,10
  2631 000019A0 89 D3                           	MOV	EBX,EDX
  2632 000019A2 89 04 24                        	MOV	DWORD [ESP],EAX
  2633 000019A5 8B 45 0C                        	MOV	EAX,DWORD [12+EBP]
  2634 000019A8 99                              	CDQ
  2635 000019A9 F7 FB                           	IDIV	EBX
  2636 000019AB 50                              	PUSH	EAX
  2637 000019AC 8D 5D BC                        	LEA	EBX,DWORD [-68+EBP]
  2638 000019AF 68 [000006BF]                   	PUSH	LC89
  2639 000019B4 53                              	PUSH	EBX
  2640 000019B5 E8 [00000000]                   	CALL	_sprintf
  2641 000019BA 53                              	PUSH	EBX
  2642 000019BB FF 75 08                        	PUSH	DWORD [8+EBP]
  2643 000019BE E8 FFFFEC07                     	CALL	_cons_putstr0
  2644 000019C3 8B 5D FC                        	MOV	EBX,DWORD [-4+EBP]
  2645 000019C6 C9                              	LEAVE
  2646 000019C7 C3                              	RET
  2647                                          [SECTION .data]
  2648 000006F2                                 LC90:
  2649 000006F2 6C 6F 67 20 74 65 73 74 00      	DB	"log test",0x00
  2650                                          [SECTION .text]
  2651 000019C8                                 	GLOBAL	_cmd_log
  2652 000019C8                                 _cmd_log:
  2653 000019C8 55                              	PUSH	EBP
  2654 000019C9 89 E5                           	MOV	EBP,ESP
  2655 000019CB 53                              	PUSH	EBX
  2656 000019CC 83 EC 70                        	SUB	ESP,112
  2657 000019CF 8D 5D 8C                        	LEA	EBX,DWORD [-116+EBP]
  2658 000019D2 68 [000006F2]                   	PUSH	LC90
  2659 000019D7 53                              	PUSH	EBX
  2660 000019D8 E8 [00000000]                   	CALL	_sprintf
  2661 000019DD 53                              	PUSH	EBX
  2662 000019DE FF 35 [00000ABC]                	PUSH	DWORD [_log]
  2663 000019E4 E8 FFFFEBE1                     	CALL	_cons_putstr0
  2664 000019E9 FF 35 [00000ABC]                	PUSH	DWORD [_log]
  2665 000019EF E8 FFFFEA83                     	CALL	_cons_newline
  2666 000019F4 8B 5D FC                        	MOV	EBX,DWORD [-4+EBP]
  2667 000019F7 C9                              	LEAVE
  2668 000019F8 C3                              	RET
  2669                                          [SECTION .data]
  2670 000006FB                                 LC91:
  2671 000006FB 66 69 6C 65 6E 61 6D 65 3D 25   	DB	"filename=%s",0x0A,0x00
       00000705 73 0A 00 
  2672 00000708                                 LC92:
  2673 00000708 46 69 6C 65 20 6E 6F 74 20 66   	DB	"File not found.",0x0A,0x00
       00000712 6F 75 6E 64 2E 0A 00 
  2674                                          [SECTION .text]
  2675 000019F9                                 	GLOBAL	_cmd_cat
  2676 000019F9                                 _cmd_cat:
  2677 000019F9 55                              	PUSH	EBP
  2678 000019FA 89 E5                           	MOV	EBP,ESP
  2679 000019FC 57                              	PUSH	EDI
  2680 000019FD 56                              	PUSH	ESI
  2681 000019FE 53                              	PUSH	EBX
  2682 000019FF 8D 5D D4                        	LEA	EBX,DWORD [-44+EBP]
  2683 00001A02 83 EC 20                        	SUB	ESP,32
  2684 00001A05 8B 7D 08                        	MOV	EDI,DWORD [8+EBP]
  2685 00001A08 8B 45 10                        	MOV	EAX,DWORD [16+EBP]
  2686 00001A0B 6A 32                           	PUSH	50
  2687 00001A0D 83 C0 04                        	ADD	EAX,4
  2688 00001A10 FF 77 14                        	PUSH	DWORD [20+EDI]
  2689 00001A13 50                              	PUSH	EAX
  2690 00001A14 E8 [00000000]                   	CALL	_myfinfo_search
  2691 00001A19 89 C6                           	MOV	ESI,EAX
  2692 00001A1B 50                              	PUSH	EAX
  2693 00001A1C 68 [000006FB]                   	PUSH	LC91
  2694 00001A21 53                              	PUSH	EBX
  2695 00001A22 E8 [00000000]                   	CALL	_sprintf
  2696 00001A27 53                              	PUSH	EBX
  2697 00001A28 57                              	PUSH	EDI
  2698 00001A29 E8 FFFFEB6E                     	CALL	_cons_putstr
  2699 00001A2E 83 C4 20                        	ADD	ESP,32
  2700 00001A31 85 F6                           	TEST	ESI,ESI
  2701 00001A33 74 51                           	JE	L464
  2702 00001A35 FF 76 1C                        	PUSH	DWORD [28+ESI]
  2703 00001A38 68 003C0000                     	PUSH	3932160
  2704 00001A3D E8 [00000000]                   	CALL	_memman_alloc_4k
  2705 00001A42 68 00103E00                     	PUSH	1064448
  2706 00001A47 FF 75 0C                        	PUSH	DWORD [12+EBP]
  2707 00001A4A 50                              	PUSH	EAX
  2708 00001A4B 89 C3                           	MOV	EBX,EAX
  2709 00001A4D FF 76 1C                        	PUSH	DWORD [28+ESI]
  2710 00001A50 0F B7 46 1A                     	MOVZX	EAX,WORD [26+ESI]
  2711 00001A54 50                              	PUSH	EAX
  2712 00001A55 E8 [00000000]                   	CALL	_file_loadfile
  2713 00001A5A FF 76 1C                        	PUSH	DWORD [28+ESI]
  2714 00001A5D 53                              	PUSH	EBX
  2715 00001A5E 57                              	PUSH	EDI
  2716 00001A5F E8 FFFFEB94                     	CALL	_cons_putstr1
  2717 00001A64 83 C4 28                        	ADD	ESP,40
  2718 00001A67 FF 76 1C                        	PUSH	DWORD [28+ESI]
  2719 00001A6A 53                              	PUSH	EBX
  2720 00001A6B 68 003C0000                     	PUSH	3932160
  2721 00001A70 E8 [00000000]                   	CALL	_memman_free_4k
  2722 00001A75 83 C4 0C                        	ADD	ESP,12
  2723 00001A78                                 L465:
  2724 00001A78 57                              	PUSH	EDI
  2725 00001A79 E8 FFFFE9F9                     	CALL	_cons_newline
  2726 00001A7E 8D 65 F4                        	LEA	ESP,DWORD [-12+EBP]
  2727 00001A81 5B                              	POP	EBX
  2728 00001A82 5E                              	POP	ESI
  2729 00001A83 5F                              	POP	EDI
  2730 00001A84 5D                              	POP	EBP
  2731 00001A85 C3                              	RET
  2732 00001A86                                 L464:
  2733 00001A86 68 [00000708]                   	PUSH	LC92
  2734 00001A8B 57                              	PUSH	EDI
  2735 00001A8C E8 FFFFEB39                     	CALL	_cons_putstr0
  2736 00001A91 58                              	POP	EAX
  2737 00001A92 5A                              	POP	EDX
  2738 00001A93 EB E3                           	JMP	L465
  2739 00001A95                                 	GLOBAL	_cmd_cls
  2740 00001A95                                 _cmd_cls:
  2741 00001A95 55                              	PUSH	EBP
  2742 00001A96 89 E5                           	MOV	EBP,ESP
  2743 00001A98 57                              	PUSH	EDI
  2744 00001A99 56                              	PUSH	ESI
  2745 00001A9A BE 0000001C                     	MOV	ESI,28
  2746 00001A9F 53                              	PUSH	EBX
  2747 00001AA0 51                              	PUSH	ECX
  2748 00001AA1 51                              	PUSH	ECX
  2749 00001AA2 8B 45 08                        	MOV	EAX,DWORD [8+EBP]
  2750 00001AA5 8B 18                           	MOV	EBX,DWORD [EAX]
  2751 00001AA7 8B 43 08                        	MOV	EAX,DWORD [8+EBX]
  2752 00001AAA 8B 53 04                        	MOV	EDX,DWORD [4+EBX]
  2753 00001AAD 83 EA 10                        	SUB	EDX,16
  2754 00001AB0 89 55 F0                        	MOV	DWORD [-16+EBP],EDX
  2755 00001AB3 8D 50 DB                        	LEA	EDX,DWORD [-37+EAX]
  2756 00001AB6 83 E8 09                        	SUB	EAX,9
  2757 00001AB9 89 55 EC                        	MOV	DWORD [-20+EBP],EDX
  2758 00001ABC 39 C6                           	CMP	ESI,EAX
  2759 00001ABE 7D 2E                           	JGE	L478
  2760 00001AC0                                 L476:
  2761 00001AC0 8B 7D F0                        	MOV	EDI,DWORD [-16+EBP]
  2762 00001AC3 B9 00000008                     	MOV	ECX,8
  2763 00001AC8 83 C7 08                        	ADD	EDI,8
  2764 00001ACB 39 F9                           	CMP	ECX,EDI
  2765 00001ACD 7D 14                           	JGE	L480
  2766 00001ACF                                 L475:
  2767 00001ACF 89 F0                           	MOV	EAX,ESI
  2768 00001AD1 8B 13                           	MOV	EDX,DWORD [EBX]
  2769 00001AD3 0F AF 43 04                     	IMUL	EAX,DWORD [4+EBX]
  2770 00001AD7 8D 04 08                        	LEA	EAX,DWORD [EAX+ECX*1]
  2771 00001ADA 41                              	INC	ECX
  2772 00001ADB 39 F9                           	CMP	ECX,EDI
  2773 00001ADD C6 04 10 00                     	MOV	BYTE [EAX+EDX*1],0
  2774 00001AE1 7C EC                           	JL	L475
  2775 00001AE3                                 L480:
  2776 00001AE3 8B 45 EC                        	MOV	EAX,DWORD [-20+EBP]
  2777 00001AE6 46                              	INC	ESI
  2778 00001AE7 83 C0 1C                        	ADD	EAX,28
  2779 00001AEA 39 C6                           	CMP	ESI,EAX
  2780 00001AEC 7C D2                           	JL	L476
  2781 00001AEE                                 L478:
  2782 00001AEE 8B 45 EC                        	MOV	EAX,DWORD [-20+EBP]
  2783 00001AF1 83 C0 1C                        	ADD	EAX,28
  2784 00001AF4 50                              	PUSH	EAX
  2785 00001AF5 8B 45 F0                        	MOV	EAX,DWORD [-16+EBP]
  2786 00001AF8 83 C0 08                        	ADD	EAX,8
  2787 00001AFB 50                              	PUSH	EAX
  2788 00001AFC 6A 1C                           	PUSH	28
  2789 00001AFE 6A 08                           	PUSH	8
  2790 00001B00 53                              	PUSH	EBX
  2791 00001B01 E8 [00000000]                   	CALL	_sheet_refresh
  2792 00001B06 8B 45 08                        	MOV	EAX,DWORD [8+EBP]
  2793 00001B09 C7 40 08 0000001C               	MOV	DWORD [8+EAX],28
  2794 00001B10 8D 65 F4                        	LEA	ESP,DWORD [-12+EBP]
  2795 00001B13 5B                              	POP	EBX
  2796 00001B14 5E                              	POP	ESI
  2797 00001B15 5F                              	POP	EDI
  2798 00001B16 5D                              	POP	EBP
  2799 00001B17 C3                              	RET
  2800 00001B18                                 	GLOBAL	_cmd_logcls
  2801 00001B18                                 _cmd_logcls:
  2802 00001B18 55                              	PUSH	EBP
  2803 00001B19 89 E5                           	MOV	EBP,ESP
  2804 00001B1B 57                              	PUSH	EDI
  2805 00001B1C 56                              	PUSH	ESI
  2806 00001B1D BE 0000001C                     	MOV	ESI,28
  2807 00001B22 53                              	PUSH	EBX
  2808 00001B23 53                              	PUSH	EBX
  2809 00001B24 53                              	PUSH	EBX
  2810 00001B25 A1 [00000ABC]                   	MOV	EAX,DWORD [_log]
  2811 00001B2A 8B 18                           	MOV	EBX,DWORD [EAX]
  2812 00001B2C 8B 43 04                        	MOV	EAX,DWORD [4+EBX]
  2813 00001B2F 83 E8 10                        	SUB	EAX,16
  2814 00001B32 89 45 F0                        	MOV	DWORD [-16+EBP],EAX
  2815 00001B35 8B 43 08                        	MOV	EAX,DWORD [8+EBX]
  2816 00001B38 8D 50 DB                        	LEA	EDX,DWORD [-37+EAX]
  2817 00001B3B 83 E8 09                        	SUB	EAX,9
  2818 00001B3E 89 55 EC                        	MOV	DWORD [-20+EBP],EDX
  2819 00001B41 39 C6                           	CMP	ESI,EAX
  2820 00001B43 7D 2E                           	JGE	L493
  2821 00001B45                                 L491:
  2822 00001B45 8B 7D F0                        	MOV	EDI,DWORD [-16+EBP]
  2823 00001B48 B9 00000008                     	MOV	ECX,8
  2824 00001B4D 83 C7 08                        	ADD	EDI,8
  2825 00001B50 39 F9                           	CMP	ECX,EDI
  2826 00001B52 7D 14                           	JGE	L495
  2827 00001B54                                 L490:
  2828 00001B54 89 F0                           	MOV	EAX,ESI
  2829 00001B56 8B 13                           	MOV	EDX,DWORD [EBX]
  2830 00001B58 0F AF 43 04                     	IMUL	EAX,DWORD [4+EBX]
  2831 00001B5C 8D 04 08                        	LEA	EAX,DWORD [EAX+ECX*1]
  2832 00001B5F 41                              	INC	ECX
  2833 00001B60 39 F9                           	CMP	ECX,EDI
  2834 00001B62 C6 04 10 00                     	MOV	BYTE [EAX+EDX*1],0
  2835 00001B66 7C EC                           	JL	L490
  2836 00001B68                                 L495:
  2837 00001B68 8B 45 EC                        	MOV	EAX,DWORD [-20+EBP]
  2838 00001B6B 46                              	INC	ESI
  2839 00001B6C 83 C0 1C                        	ADD	EAX,28
  2840 00001B6F 39 C6                           	CMP	ESI,EAX
  2841 00001B71 7C D2                           	JL	L491
  2842 00001B73                                 L493:
  2843 00001B73 8B 45 EC                        	MOV	EAX,DWORD [-20+EBP]
  2844 00001B76 83 C0 1C                        	ADD	EAX,28
  2845 00001B79 50                              	PUSH	EAX
  2846 00001B7A 8B 45 F0                        	MOV	EAX,DWORD [-16+EBP]
  2847 00001B7D 83 C0 08                        	ADD	EAX,8
  2848 00001B80 50                              	PUSH	EAX
  2849 00001B81 6A 1C                           	PUSH	28
  2850 00001B83 6A 08                           	PUSH	8
  2851 00001B85 53                              	PUSH	EBX
  2852 00001B86 E8 [00000000]                   	CALL	_sheet_refresh
  2853 00001B8B A1 [00000ABC]                   	MOV	EAX,DWORD [_log]
  2854 00001B90 C7 40 08 0000001C               	MOV	DWORD [8+EAX],28
  2855 00001B97 8D 65 F4                        	LEA	ESP,DWORD [-12+EBP]
  2856 00001B9A 5B                              	POP	EBX
  2857 00001B9B 5E                              	POP	ESI
  2858 00001B9C 5F                              	POP	EDI
  2859 00001B9D 5D                              	POP	EBP
  2860 00001B9E C3                              	RET
  2861                                          [SECTION .data]
  2862 00000719                                 LC93:
  2863 00000719 42 4C 4F 43 4B 5F 53 49 5A 45   	DB	"BLOCK_SIZE = %d",0x0A,0x00
       00000723 20 3D 20 25 64 0A 00 
  2864 0000072A                                 LC94:
  2865 0000072A 73 69 7A 65 6F 66 28 73 74 72   	DB	"sizeof(struct HEAD) = %d",0x0A,0x00
       00000734 75 63 74 20 48 45 41 44 29 20 
       0000073E 3D 20 25 64 0A 00 
  2866 00000744                                 LC95:
  2867 00000744 42 4F 44 59 5F 53 49 5A 45 20   	DB	"BODY_SIZE = BLOCK_SIZE - sizeof(struct HEAD) = %d",0x0A,0x00
       0000074E 3D 20 42 4C 4F 43 4B 5F 53 49 
       00000758 5A 45 20 2D 20 73 69 7A 65 6F 
       00000762 66 28 73 74 72 75 63 74 20 48 
       0000076C 45 41 44 29 20 3D 20 25 64 0A 
       00000776 00 
  2868                                          [SECTION .text]
  2869 00001B9F                                 	GLOBAL	_cmd_test
  2870 00001B9F                                 _cmd_test:
  2871 00001B9F 55                              	PUSH	EBP
  2872 00001BA0 89 E5                           	MOV	EBP,ESP
  2873 00001BA2 53                              	PUSH	EBX
  2874 00001BA3 83 EC 70                        	SUB	ESP,112
  2875 00001BA6 8D 5D 8C                        	LEA	EBX,DWORD [-116+EBP]
  2876 00001BA9 68 00000400                     	PUSH	1024
  2877 00001BAE 68 [00000719]                   	PUSH	LC93
  2878 00001BB3 53                              	PUSH	EBX
  2879 00001BB4 E8 [00000000]                   	CALL	_sprintf
  2880 00001BB9 53                              	PUSH	EBX
  2881 00001BBA E8 FFFFE441                     	CALL	_debug_print
  2882 00001BBF 6A 1C                           	PUSH	28
  2883 00001BC1 68 [0000072A]                   	PUSH	LC94
  2884 00001BC6 53                              	PUSH	EBX
  2885 00001BC7 E8 [00000000]                   	CALL	_sprintf
  2886 00001BCC 53                              	PUSH	EBX
  2887 00001BCD E8 FFFFE42E                     	CALL	_debug_print
  2888 00001BD2 83 C4 20                        	ADD	ESP,32
  2889 00001BD5 68 000003E4                     	PUSH	996
  2890 00001BDA 68 [00000744]                   	PUSH	LC95
  2891 00001BDF 53                              	PUSH	EBX
  2892 00001BE0 E8 [00000000]                   	CALL	_sprintf
  2893 00001BE5 53                              	PUSH	EBX
  2894 00001BE6 E8 FFFFE415                     	CALL	_debug_print
  2895 00001BEB FF 75 08                        	PUSH	DWORD [8+EBP]
  2896 00001BEE E8 FFFFE884                     	CALL	_cons_newline
  2897 00001BF3 8B 5D FC                        	MOV	EBX,DWORD [-4+EBP]
  2898 00001BF6 C9                              	LEAVE
  2899 00001BF7 C3                              	RET
  2900                                          [SECTION .data]
  2901 00000777                                 LC96:
  2902 00000777 09 66 69 6E 66 6F 20 61 64 64   	DB	0x09,"finfo addr = 0x%08x",0x0A,0x00
       00000781 72 20 3D 20 30 78 25 30 38 78 
       0000078B 0A 00 
  2903 0000078D                                 LC99:
  2904 0000078D 09 6E 61 6D 65 3D 25 73 5B 45   	DB	0x09,"name=%s[EOF]",0x0A,0x09,"ext=%s[EOF]",0x0A,0x09,"clustno=%d",0x0A,0x09,"date=%d",0x0A,0x09,"size=%d[byte]",0x0A,0x09,"time=%d",0x0A,0x09,"type=0x%02x",0x0A,0x00
       00000797 4F 46 5D 0A 09 65 78 74 3D 25 
       000007A1 73 5B 45 4F 46 5D 0A 09 63 6C 
       000007AB 75 73 74 6E 6F 3D 25 64 0A 09 
       000007B5 64 61 74 65 3D 25 64 0A 09 73 
       000007BF 69 7A 65 3D 25 64 5B 62 79 74 
       000007C9 65 5D 0A 09 74 69 6D 65 3D 25 
       000007D3 64 0A 09 74 79 70 65 3D 30 78 
       000007DD 25 30 32 78 0A 00 
  2905 000007E3                                 LC100:
  2906 000007E3 09 64 65 74 61 69 6C 20 66 69   	DB	0x09,"detail file type: ",0x00
       000007ED 6C 65 20 74 79 70 65 3A 20 00 
  2907 000007F7                                 LC105:
  2908 000007F7 25 73 0A 00                     	DB	"%s",0x0A,0x00
  2909 000007FB                                 LC104:
  2910 000007FB 25 73 20 6F 74 68 65 72 20 00   	DB	"%s other ",0x00
  2911 00000805                                 LC103:
  2912 00000805 25 73 20 73 79 73 74 65 6D 20   	DB	"%s system ",0x00
       0000080F 00 
  2913 00000810                                 LC102:
  2914 00000810 25 73 20 66 69 6C 65 20 00      	DB	"%s file ",0x00
  2915 00000819                                 LC101:
  2916 00000819 25 73 20 64 69 72 65 63 74 6F   	DB	"%s directory/readonly ",0x00
       00000823 72 79 2F 72 65 61 64 6F 6E 6C 
       0000082D 79 20 00 
  2917 00000830                                 LC97:
  2918 00000830 09 25 73 20 77 61 73 20 6E 6F   	DB	0x09,"%s was not found.",0x0A,0x00
       0000083A 74 20 66 6F 75 6E 64 2E 0A 00 
  2919 00000844                                 LC98:
  2920 00000844 09 66 69 6E 66 6F 20 6E 75 6D   	DB	0x09,"finfo number was %d.",0x0A,0x00
       0000084E 62 65 72 20 77 61 73 20 25 64 
       00000858 2E 0A 00 
  2921                                          [SECTION .text]
  2922 00001BF8                                 	GLOBAL	_cmd_show
  2923 00001BF8                                 _cmd_show:
  2924 00001BF8 55                              	PUSH	EBP
  2925 00001BF9 89 E5                           	MOV	EBP,ESP
  2926 00001BFB 57                              	PUSH	EDI
  2927 00001BFC 56                              	PUSH	ESI
  2928 00001BFD 53                              	PUSH	EBX
  2929 00001BFE 8D B5 FFFFFF54                  	LEA	ESI,DWORD [-172+EBP]
  2930 00001C04 81 EC 000000A0                  	SUB	ESP,160
  2931 00001C0A 8B 45 08                        	MOV	EAX,DWORD [8+EBP]
  2932 00001C0D 8B 7D 0C                        	MOV	EDI,DWORD [12+EBP]
  2933 00001C10 6A 32                           	PUSH	50
  2934 00001C12 83 C7 05                        	ADD	EDI,5
  2935 00001C15 FF 70 14                        	PUSH	DWORD [20+EAX]
  2936 00001C18 57                              	PUSH	EDI
  2937 00001C19 E8 [00000000]                   	CALL	_myfinfo_search
  2938 00001C1E 89 C3                           	MOV	EBX,EAX
  2939 00001C20 50                              	PUSH	EAX
  2940 00001C21 68 [00000777]                   	PUSH	LC96
  2941 00001C26 56                              	PUSH	ESI
  2942 00001C27 E8 [00000000]                   	CALL	_sprintf
  2943 00001C2C 56                              	PUSH	ESI
  2944 00001C2D FF 75 08                        	PUSH	DWORD [8+EBP]
  2945 00001C30 E8 FFFFE967                     	CALL	_cons_putstr
  2946 00001C35 83 C4 20                        	ADD	ESP,32
  2947 00001C38 85 DB                           	TEST	EBX,EBX
  2948 00001C3A 0F 84 000000D0                  	JE	L505
  2949 00001C40 0F B6 43 0B                     	MOVZX	EAX,BYTE [11+EBX]
  2950 00001C44 50                              	PUSH	EAX
  2951 00001C45 0F B7 43 16                     	MOVZX	EAX,WORD [22+EBX]
  2952 00001C49 50                              	PUSH	EAX
  2953 00001C4A FF 73 1C                        	PUSH	DWORD [28+EBX]
  2954 00001C4D 0F B7 43 18                     	MOVZX	EAX,WORD [24+EBX]
  2955 00001C51 50                              	PUSH	EAX
  2956 00001C52 0F B7 43 1A                     	MOVZX	EAX,WORD [26+EBX]
  2957 00001C56 50                              	PUSH	EAX
  2958 00001C57 8D 43 08                        	LEA	EAX,DWORD [8+EBX]
  2959 00001C5A 50                              	PUSH	EAX
  2960 00001C5B 53                              	PUSH	EBX
  2961 00001C5C 68 [0000078D]                   	PUSH	LC99
  2962 00001C61 56                              	PUSH	ESI
  2963 00001C62 E8 [00000000]                   	CALL	_sprintf
  2964 00001C67 83 C4 24                        	ADD	ESP,36
  2965 00001C6A 56                              	PUSH	ESI
  2966 00001C6B FF 75 08                        	PUSH	DWORD [8+EBP]
  2967 00001C6E E8 FFFFE929                     	CALL	_cons_putstr
  2968 00001C73 8A 5B 0B                        	MOV	BL,BYTE [11+EBX]
  2969 00001C76 59                              	POP	ECX
  2970 00001C77 5F                              	POP	EDI
  2971 00001C78 68 [000007E3]                   	PUSH	LC100
  2972 00001C7D 56                              	PUSH	ESI
  2973 00001C7E E8 [00000000]                   	CALL	_sprintf
  2974 00001C83 5F                              	POP	EDI
  2975 00001C84 88 D8                           	MOV	AL,BL
  2976 00001C86 5A                              	POP	EDX
  2977 00001C87 83 E0 10                        	AND	EAX,16
  2978 00001C8A 84 C0                           	TEST	AL,AL
  2979 00001C8C 75 6E                           	JNE	L506
  2980 00001C8E                                 L500:
  2981 00001C8E 88 D8                           	MOV	AL,BL
  2982 00001C90 83 E0 20                        	AND	EAX,32
  2983 00001C93 84 C0                           	TEST	AL,AL
  2984 00001C95 75 54                           	JNE	L507
  2985 00001C97                                 L501:
  2986 00001C97 88 D8                           	MOV	AL,BL
  2987 00001C99 83 E0 40                        	AND	EAX,64
  2988 00001C9C 84 C0                           	TEST	AL,AL
  2989 00001C9E 75 3A                           	JNE	L508
  2990 00001CA0                                 L502:
  2991 00001CA0 84 DB                           	TEST	BL,BL
  2992 00001CA2 78 25                           	JS	L509
  2993 00001CA4                                 L503:
  2994 00001CA4 56                              	PUSH	ESI
  2995 00001CA5 68 [000007F7]                   	PUSH	LC105
  2996 00001CAA 56                              	PUSH	ESI
  2997 00001CAB E8 [00000000]                   	CALL	_sprintf
  2998 00001CB0 56                              	PUSH	ESI
  2999 00001CB1 FF 75 08                        	PUSH	DWORD [8+EBP]
  3000 00001CB4 E8 FFFFE911                     	CALL	_cons_putstr0
  3001 00001CB9                                 L504:
  3002 00001CB9 FF 75 08                        	PUSH	DWORD [8+EBP]
  3003 00001CBC E8 FFFFE7B6                     	CALL	_cons_newline
  3004 00001CC1 8D 65 F4                        	LEA	ESP,DWORD [-12+EBP]
  3005 00001CC4 5B                              	POP	EBX
  3006 00001CC5 5E                              	POP	ESI
  3007 00001CC6 5F                              	POP	EDI
  3008 00001CC7 5D                              	POP	EBP
  3009 00001CC8 C3                              	RET
  3010 00001CC9                                 L509:
  3011 00001CC9 56                              	PUSH	ESI
  3012 00001CCA 68 [000007FB]                   	PUSH	LC104
  3013 00001CCF 56                              	PUSH	ESI
  3014 00001CD0 E8 [00000000]                   	CALL	_sprintf
  3015 00001CD5 83 C4 0C                        	ADD	ESP,12
  3016 00001CD8 EB CA                           	JMP	L503
  3017 00001CDA                                 L508:
  3018 00001CDA 56                              	PUSH	ESI
  3019 00001CDB 68 [00000805]                   	PUSH	LC103
  3020 00001CE0 56                              	PUSH	ESI
  3021 00001CE1 E8 [00000000]                   	CALL	_sprintf
  3022 00001CE6 83 C4 0C                        	ADD	ESP,12
  3023 00001CE9 EB B5                           	JMP	L502
  3024 00001CEB                                 L507:
  3025 00001CEB 56                              	PUSH	ESI
  3026 00001CEC 68 [00000810]                   	PUSH	LC102
  3027 00001CF1 56                              	PUSH	ESI
  3028 00001CF2 E8 [00000000]                   	CALL	_sprintf
  3029 00001CF7 83 C4 0C                        	ADD	ESP,12
  3030 00001CFA EB 9B                           	JMP	L501
  3031 00001CFC                                 L506:
  3032 00001CFC 56                              	PUSH	ESI
  3033 00001CFD 68 [00000819]                   	PUSH	LC101
  3034 00001D02 56                              	PUSH	ESI
  3035 00001D03 E8 [00000000]                   	CALL	_sprintf
  3036 00001D08 83 C4 0C                        	ADD	ESP,12
  3037 00001D0B E9 FFFFFF7E                     	JMP	L500
  3038 00001D10                                 L505:
  3039 00001D10 57                              	PUSH	EDI
  3040 00001D11 68 [00000830]                   	PUSH	LC97
  3041 00001D16 56                              	PUSH	ESI
  3042 00001D17 E8 [00000000]                   	CALL	_sprintf
  3043 00001D1C 56                              	PUSH	ESI
  3044 00001D1D FF 75 08                        	PUSH	DWORD [8+EBP]
  3045 00001D20 E8 FFFFE877                     	CALL	_cons_putstr
  3046 00001D25 6A 00                           	PUSH	0
  3047 00001D27 68 [00000844]                   	PUSH	LC98
  3048 00001D2C 56                              	PUSH	ESI
  3049 00001D2D E8 [00000000]                   	CALL	_sprintf
  3050 00001D32 83 C4 20                        	ADD	ESP,32
  3051 00001D35 56                              	PUSH	ESI
  3052 00001D36 FF 75 08                        	PUSH	DWORD [8+EBP]
  3053 00001D39 E8 FFFFE85E                     	CALL	_cons_putstr
  3054 00001D3E E9 FFFFFF76                     	JMP	L504
  3055                                          [SECTION .data]
  3056 0000085B                                 LC106:
  3057 0000085B 66 69 6E 66 6F 20 61 64 64 72   	DB	"finfo addr = 0x%08x",0x0A,0x00
       00000865 20 3D 20 30 78 25 30 38 78 0A 
       0000086F 00 
  3058 00000870                                 LC107:
  3059 00000870 66 64 61 74 61 20 61 64 64 72   	DB	"fdata addr = 0x%08x",0x0A,0x00
       0000087A 20 3D 20 30 78 25 30 38 78 0A 
       00000884 00 
  3060 00000885                                 LC108:
  3061 00000885 68 65 61 64 2E 64 61 74 61 5F   	DB	"head.data_addr=0x%08x",0x0A,0x00
       0000088F 61 64 64 72 3D 30 78 25 30 38 
       00000899 78 0A 00 
  3062 0000089C                                 LC109:
  3063 0000089C 68 65 61 64 2E 64 69 72 5F 61   	DB	"head.dir_addr=0x%08x",0x0A,0x00
       000008A6 64 64 72 3D 30 78 25 30 38 78 
       000008B0 0A 00 
  3064 000008B2                                 LC110:
  3065 000008B2 68 65 61 64 2E 73 74 61 74 3D   	DB	"head.stat=0x%02x",0x0A,0x00
       000008BC 30 78 25 30 32 78 0A 00 
  3066 000008C4                                 LC111:
  3067 000008C4 5B 45 4F 46 5D 0A 00            	DB	"[EOF]",0x0A,0x00
  3068 000008CB                                 LC112:
  3069 000008CB 73 69 7A 65 3A 20 25 64 0A 00   	DB	"size: %d",0x0A,0x00
  3070 000008D5                                 LC113:
  3071 000008D5 09 74 68 69 73 20 69 73 20 6E   	DB	0x09,"this is not file.",0x0A,0x00
       000008DF 6F 74 20 66 69 6C 65 2E 0A 00 
  3072                                          [SECTION .text]
  3073 00001D43                                 	GLOBAL	_cmd_fview
  3074 00001D43                                 _cmd_fview:
  3075 00001D43 55                              	PUSH	EBP
  3076 00001D44 89 E5                           	MOV	EBP,ESP
  3077 00001D46 57                              	PUSH	EDI
  3078 00001D47 56                              	PUSH	ESI
  3079 00001D48 53                              	PUSH	EBX
  3080 00001D49 8D 9D FFFFFF64                  	LEA	EBX,DWORD [-156+EBP]
  3081 00001D4F 81 EC 00000090                  	SUB	ESP,144
  3082 00001D55 8B 45 08                        	MOV	EAX,DWORD [8+EBP]
  3083 00001D58 8B 7D 0C                        	MOV	EDI,DWORD [12+EBP]
  3084 00001D5B 6A 32                           	PUSH	50
  3085 00001D5D 83 C7 06                        	ADD	EDI,6
  3086 00001D60 FF 70 14                        	PUSH	DWORD [20+EAX]
  3087 00001D63 57                              	PUSH	EDI
  3088 00001D64 E8 [00000000]                   	CALL	_myfinfo_search
  3089 00001D69 89 C6                           	MOV	ESI,EAX
  3090 00001D6B 50                              	PUSH	EAX
  3091 00001D6C 68 [0000085B]                   	PUSH	LC106
  3092 00001D71 53                              	PUSH	EBX
  3093 00001D72 E8 [00000000]                   	CALL	_sprintf
  3094 00001D77 53                              	PUSH	EBX
  3095 00001D78 E8 FFFFE283                     	CALL	_debug_print
  3096 00001D7D 83 C4 1C                        	ADD	ESP,28
  3097 00001D80 85 F6                           	TEST	ESI,ESI
  3098 00001D82 0F 84 000000DE                  	JE	L515
  3099 00001D88 8B 46 24                        	MOV	EAX,DWORD [36+ESI]
  3100 00001D8B 85 C0                           	TEST	EAX,EAX
  3101 00001D8D 0F 84 000000B2                  	JE	L513
  3102 00001D93 50                              	PUSH	EAX
  3103 00001D94 68 [00000870]                   	PUSH	LC107
  3104 00001D99 53                              	PUSH	EBX
  3105 00001D9A E8 [00000000]                   	CALL	_sprintf
  3106 00001D9F 53                              	PUSH	EBX
  3107 00001DA0 E8 FFFFE25B                     	CALL	_debug_print
  3108 00001DA5 8B 46 24                        	MOV	EAX,DWORD [36+ESI]
  3109 00001DA8 FF 70 10                        	PUSH	DWORD [16+EAX]
  3110 00001DAB 68 [00000885]                   	PUSH	LC108
  3111 00001DB0 53                              	PUSH	EBX
  3112 00001DB1 E8 [00000000]                   	CALL	_sprintf
  3113 00001DB6 53                              	PUSH	EBX
  3114 00001DB7 E8 FFFFE244                     	CALL	_debug_print
  3115 00001DBC 8B 46 24                        	MOV	EAX,DWORD [36+ESI]
  3116 00001DBF 83 C4 20                        	ADD	ESP,32
  3117 00001DC2 FF 70 14                        	PUSH	DWORD [20+EAX]
  3118 00001DC5 68 [0000089C]                   	PUSH	LC109
  3119 00001DCA 53                              	PUSH	EBX
  3120 00001DCB E8 [00000000]                   	CALL	_sprintf
  3121 00001DD0 53                              	PUSH	EBX
  3122 00001DD1 E8 FFFFE22A                     	CALL	_debug_print
  3123 00001DD6 8B 46 24                        	MOV	EAX,DWORD [36+ESI]
  3124 00001DD9 0F B6 00                        	MOVZX	EAX,BYTE [EAX]
  3125 00001DDC 50                              	PUSH	EAX
  3126 00001DDD 68 [000008B2]                   	PUSH	LC110
  3127 00001DE2 53                              	PUSH	EBX
  3128 00001DE3 E8 [00000000]                   	CALL	_sprintf
  3129 00001DE8 53                              	PUSH	EBX
  3130 00001DE9 E8 FFFFE212                     	CALL	_debug_print
  3131 00001DEE 83 C4 20                        	ADD	ESP,32
  3132 00001DF1 FF 76 24                        	PUSH	DWORD [36+ESI]
  3133 00001DF4 53                              	PUSH	EBX
  3134 00001DF5 E8 [00000000]                   	CALL	_myfread
  3135 00001DFA 53                              	PUSH	EBX
  3136 00001DFB FF 75 08                        	PUSH	DWORD [8+EBP]
  3137 00001DFE E8 FFFFE799                     	CALL	_cons_putstr
  3138 00001E03 68 [000008C4]                   	PUSH	LC111
  3139 00001E08 FF 75 08                        	PUSH	DWORD [8+EBP]
  3140 00001E0B E8 FFFFE78C                     	CALL	_cons_putstr
  3141 00001E10 FF 76 24                        	PUSH	DWORD [36+ESI]
  3142 00001E13 E8 [00000000]                   	CALL	_get_size_myfdata
  3143 00001E18 89 04 24                        	MOV	DWORD [ESP],EAX
  3144 00001E1B 68 [000008CB]                   	PUSH	LC112
  3145 00001E20 53                              	PUSH	EBX
  3146 00001E21 E8 [00000000]                   	CALL	_sprintf
  3147 00001E26 83 C4 24                        	ADD	ESP,36
  3148 00001E29 53                              	PUSH	EBX
  3149 00001E2A FF 75 08                        	PUSH	DWORD [8+EBP]
  3150 00001E2D E8 FFFFE76A                     	CALL	_cons_putstr
  3151 00001E32 FF 75 08                        	PUSH	DWORD [8+EBP]
  3152 00001E35 E8 FFFFE63D                     	CALL	_cons_newline
  3153 00001E3A 83 C4 0C                        	ADD	ESP,12
  3154 00001E3D                                 L510:
  3155 00001E3D 8D 65 F4                        	LEA	ESP,DWORD [-12+EBP]
  3156 00001E40 5B                              	POP	EBX
  3157 00001E41 5E                              	POP	ESI
  3158 00001E42 5F                              	POP	EDI
  3159 00001E43 5D                              	POP	EBP
  3160 00001E44 C3                              	RET
  3161 00001E45                                 L513:
  3162 00001E45 68 [000008D5]                   	PUSH	LC113
  3163 00001E4A 53                              	PUSH	EBX
  3164 00001E4B E8 [00000000]                   	CALL	_sprintf
  3165 00001E50 53                              	PUSH	EBX
  3166 00001E51 FF 75 08                        	PUSH	DWORD [8+EBP]
  3167 00001E54 E8 FFFFE743                     	CALL	_cons_putstr
  3168 00001E59 FF 75 08                        	PUSH	DWORD [8+EBP]
  3169 00001E5C E8 FFFFE616                     	CALL	_cons_newline
  3170 00001E61 83 C4 14                        	ADD	ESP,20
  3171 00001E64 EB D7                           	JMP	L510
  3172 00001E66                                 L515:
  3173 00001E66 57                              	PUSH	EDI
  3174 00001E67 68 [00000830]                   	PUSH	LC97
  3175 00001E6C 53                              	PUSH	EBX
  3176 00001E6D E8 [00000000]                   	CALL	_sprintf
  3177 00001E72 53                              	PUSH	EBX
  3178 00001E73 FF 75 08                        	PUSH	DWORD [8+EBP]
  3179 00001E76 E8 FFFFE721                     	CALL	_cons_putstr
  3180 00001E7B 6A 00                           	PUSH	0
  3181 00001E7D 68 [00000844]                   	PUSH	LC98
  3182 00001E82 53                              	PUSH	EBX
  3183 00001E83 E8 [00000000]                   	CALL	_sprintf
  3184 00001E88 83 C4 20                        	ADD	ESP,32
  3185 00001E8B 53                              	PUSH	EBX
  3186 00001E8C FF 75 08                        	PUSH	DWORD [8+EBP]
  3187 00001E8F E8 FFFFE708                     	CALL	_cons_putstr
  3188 00001E94 FF 75 08                        	PUSH	DWORD [8+EBP]
  3189 00001E97 E8 FFFFE5DB                     	CALL	_cons_newline
  3190 00001E9C EB 9F                           	JMP	L510
  3191                                          [SECTION .data]
  3192 000008E9                                 LC114:
  3193 000008E9 52 4F 4F 54 20 20 20 20 00      	DB	"ROOT    ",0x00
  3194 000008F2                                 LC116:
  3195 000008F2 6D 61 6B 65 20 66 69 6C 65 73   	DB	"make filesystem!",0x0A,0x00
       000008FC 79 73 74 65 6D 21 0A 00 
  3196 00000904                                 LC115:
  3197 00000904 66 69 6C 65 6E 61 6D 65 2E 65   	DB	"filename.ext   %7d",0x0A,0x00
       0000090E 78 74 20 20 20 25 37 64 0A 00 
  3198                                          [SECTION .text]
  3199 00001E9E                                 	GLOBAL	_cmd_mkfs
  3200 00001E9E                                 _cmd_mkfs:
  3201 00001E9E 55                              	PUSH	EBP
  3202 00001E9F 89 E5                           	MOV	EBP,ESP
  3203 00001EA1 57                              	PUSH	EDI
  3204 00001EA2 56                              	PUSH	ESI
  3205 00001EA3 31 FF                           	XOR	EDI,EDI
  3206 00001EA5 53                              	PUSH	EBX
  3207 00001EA6 8D 45 E4                        	LEA	EAX,DWORD [-28+EBP]
  3208 00001EA9 81 EC 00000800                  	SUB	ESP,2048
  3209 00001EAF 8D 75 F4                        	LEA	ESI,DWORD [-12+EBP]
  3210 00001EB2 68 [000008E9]                   	PUSH	LC114
  3211 00001EB7 50                              	PUSH	EAX
  3212 00001EB8 E8 [00000000]                   	CALL	_sprintf
  3213 00001EBD 8B 45 08                        	MOV	EAX,DWORD [8+EBP]
  3214 00001EC0 C7 45 EC 00000000               	MOV	DWORD [-20+EBP],0
  3215 00001EC7 C7 45 F0 00400000               	MOV	DWORD [-16+EBP],4194304
  3216 00001ECE C7 40 14 00400000               	MOV	DWORD [20+EAX],4194304
  3217 00001ED5 59                              	POP	ECX
  3218 00001ED6 5B                              	POP	EBX
  3219 00001ED7 31 DB                           	XOR	EBX,EBX
  3220 00001ED9                                 L544:
  3221 00001ED9 8A 83 00102600                  	MOV	AL,BYTE [1058304+EBX]
  3222 00001EDF 84 C0                           	TEST	AL,AL
  3223 00001EE1 74 19                           	JE	L518
  3224 00001EE3 3C E5                           	CMP	AL,-27
  3225 00001EE5 74 09                           	JE	L519
  3226 00001EE7 F6 83 0010260B 18               	TEST	BYTE [1058315+EBX],24
  3227 00001EEE 74 49                           	JE	L554
  3228 00001EF0                                 L519:
  3229 00001EF0 47                              	INC	EDI
  3230 00001EF1 83 C3 20                        	ADD	EBX,32
  3231 00001EF4 83 C6 28                        	ADD	ESI,40
  3232 00001EF7 83 FF 09                        	CMP	EDI,9
  3233 00001EFA 7E DD                           	JLE	L544
  3234 00001EFC                                 L518:
  3235 00001EFC FC                              	CLD
  3236 00001EFD 8D B5 FFFFF814                  	LEA	ESI,DWORD [-2028+EBP]
  3237 00001F03 BF 00400000                     	MOV	EDI,4194304
  3238 00001F08 B9 000001F8                     	MOV	ECX,504
  3239 00001F0D 8D 9D FFFFF7F4                  	LEA	EBX,DWORD [-2060+EBP]
  3240 00001F13 F3                              	REP
  3241 00001F14 A5                              	MOVSD
  3242 00001F15 68 [000008F2]                   	PUSH	LC116
  3243 00001F1A 53                              	PUSH	EBX
  3244 00001F1B E8 [00000000]                   	CALL	_sprintf
  3245 00001F20 53                              	PUSH	EBX
  3246 00001F21 FF 75 08                        	PUSH	DWORD [8+EBP]
  3247 00001F24 E8 FFFFE6A1                     	CALL	_cons_putstr0
  3248 00001F29 FF 75 08                        	PUSH	DWORD [8+EBP]
  3249 00001F2C E8 FFFFE546                     	CALL	_cons_newline
  3250 00001F31 8D 65 F4                        	LEA	ESP,DWORD [-12+EBP]
  3251 00001F34 5B                              	POP	EBX
  3252 00001F35 5E                              	POP	ESI
  3253 00001F36 5F                              	POP	EDI
  3254 00001F37 5D                              	POP	EBP
  3255 00001F38 C3                              	RET
  3256 00001F39                                 L554:
  3257 00001F39 FF B3 0010261C                  	PUSH	DWORD [1058332+EBX]
  3258 00001F3F 68 [00000904]                   	PUSH	LC115
  3259 00001F44 8D 85 FFFFF7F4                  	LEA	EAX,DWORD [-2060+EBP]
  3260 00001F4A 50                              	PUSH	EAX
  3261 00001F4B E8 [00000000]                   	CALL	_sprintf
  3262 00001F50 8D 8B 00102600                  	LEA	ECX,DWORD [1058304+EBX]
  3263 00001F56 31 D2                           	XOR	EDX,EDX
  3264 00001F58 83 C4 0C                        	ADD	ESP,12
  3265 00001F5B                                 L528:
  3266 00001F5B 8A 01                           	MOV	AL,BYTE [ECX]
  3267 00001F5D 41                              	INC	ECX
  3268 00001F5E 88 84 15 FFFFF7F4               	MOV	BYTE [-2060+EBP+EDX*1],AL
  3269 00001F65 42                              	INC	EDX
  3270 00001F66 83 FA 07                        	CMP	EDX,7
  3271 00001F69 7E F0                           	JLE	L528
  3272 00001F6B 8A 83 00102608                  	MOV	AL,BYTE [1058312+EBX]
  3273 00001F71 31 D2                           	XOR	EDX,EDX
  3274 00001F73 88 85 FFFFF7FD                  	MOV	BYTE [-2051+EBP],AL
  3275 00001F79 8D 8E FFFFF828                  	LEA	ECX,DWORD [-2008+ESI]
  3276 00001F7F 8A 83 00102609                  	MOV	AL,BYTE [1058313+EBX]
  3277 00001F85 88 85 FFFFF7FE                  	MOV	BYTE [-2050+EBP],AL
  3278 00001F8B 8A 83 0010260A                  	MOV	AL,BYTE [1058314+EBX]
  3279 00001F91 88 85 FFFFF7FF                  	MOV	BYTE [-2049+EBP],AL
  3280 00001F97 66 8B 83 0010261A               	MOV	AX,WORD [1058330+EBX]
  3281 00001F9E 66 89 86 FFFFF83A               	MOV	WORD [-1990+ESI],AX
  3282 00001FA5 66 8B 83 00102618               	MOV	AX,WORD [1058328+EBX]
  3283 00001FAC 66 89 86 FFFFF838               	MOV	WORD [-1992+ESI],AX
  3284 00001FB3                                 L533:
  3285 00001FB3 8A 84 13 00102608               	MOV	AL,BYTE [1058312+EBX+EDX*1]
  3286 00001FBA 42                              	INC	EDX
  3287 00001FBB 88 01                           	MOV	BYTE [ECX],AL
  3288 00001FBD 41                              	INC	ECX
  3289 00001FBE 83 FA 02                        	CMP	EDX,2
  3290 00001FC1 7E F0                           	JLE	L533
  3291 00001FC3 31 D2                           	XOR	EDX,EDX
  3292 00001FC5 8D 8B 00102600                  	LEA	ECX,DWORD [1058304+EBX]
  3293 00001FCB                                 L538:
  3294 00001FCB 8A 01                           	MOV	AL,BYTE [ECX]
  3295 00001FCD 41                              	INC	ECX
  3296 00001FCE 88 84 32 FFFFF820               	MOV	BYTE [-2016+EDX+ESI*1],AL
  3297 00001FD5 42                              	INC	EDX
  3298 00001FD6 83 FA 07                        	CMP	EDX,7
  3299 00001FD9 7E F0                           	JLE	L538
  3300 00001FDB 31 D2                           	XOR	EDX,EDX
  3301 00001FDD 8D 8E FFFFF82C                  	LEA	ECX,DWORD [-2004+ESI]
  3302 00001FE3                                 L543:
  3303 00001FE3 8A 84 13 0010260C               	MOV	AL,BYTE [1058316+EBX+EDX*1]
  3304 00001FEA 42                              	INC	EDX
  3305 00001FEB 88 01                           	MOV	BYTE [ECX],AL
  3306 00001FED 41                              	INC	ECX
  3307 00001FEE 83 FA 09                        	CMP	EDX,9
  3308 00001FF1 7E F0                           	JLE	L543
  3309 00001FF3 8B 83 0010261C                  	MOV	EAX,DWORD [1058332+EBX]
  3310 00001FF9 89 86 FFFFF83C                  	MOV	DWORD [-1988+ESI],EAX
  3311 00001FFF 66 8B 83 00102616               	MOV	AX,WORD [1058326+EBX]
  3312 00002006 66 89 86 FFFFF836               	MOV	WORD [-1994+ESI],AX
  3313 0000200D 8A 83 0010260B                  	MOV	AL,BYTE [1058315+EBX]
  3314 00002013 88 86 FFFFF82B                  	MOV	BYTE [-2005+ESI],AL
  3315 00002019 8D 85 FFFFF7F4                  	LEA	EAX,DWORD [-2060+EBP]
  3316 0000201F 50                              	PUSH	EAX
  3317 00002020 FF 75 08                        	PUSH	DWORD [8+EBP]
  3318 00002023 E8 FFFFE5A2                     	CALL	_cons_putstr0
  3319 00002028 58                              	POP	EAX
  3320 00002029 5A                              	POP	EDX
  3321 0000202A E9 FFFFFEC1                     	JMP	L519
  3322                                          [SECTION .data]
  3323 00000918                                 LC117:
  3324 00000918 64 69 72 65 63 74 6F 72 79 20   	DB	"directory name",0x09,"%s",0x0A,0x00
       00000922 6E 61 6D 65 09 25 73 0A 00 
  3325 0000092B                                 LC118:
  3326 0000092B 63 75 72 72 65 6E 74 20 64 69   	DB	"current dir addr",0x09
       00000935 72 20 61 64 64 72 09 
  3327 0000093C 30 78 25 30 38 78 0A 00         	DB	"0x%08x",0x0A,0x00
  3328 00000944                                 LC119:
  3329 00000944 70 61 72 65 6E 74 20 64 69 72   	DB	"parent dir addr",0x09
       0000094E 20 61 64 64 72 09 
  3330 00000954 30 78 25 30 38 78 0A 00         	DB	"0x%08x",0x0A,0x00
  3331 0000095C                                 LC122:
  3332 0000095C 74 68 69 73 20 64 69 72 65 63   	DB	"this directory has no file...",0x0A,0x00
       00000966 74 6F 72 79 20 68 61 73 20 6E 
       00000970 6F 20 66 69 6C 65 2E 2E 2E 0A 
       0000097A 00 
  3333 0000097B                                 LC121:
  3334 0000097B 66 69 6C 65 6E 61 6D 65 20 20   	DB	"filename    ",0x09,"%7d [DIR]",0x0A,0x00
       00000985 20 20 09 25 37 64 20 5B 44 49 
       0000098F 52 5D 0A 00 
  3335 00000993                                 LC120:
  3336 00000993 66 69 6C 65 6E 61 6D 65 2E 65   	DB	"filename.ext",0x09,"%7d [FILE]",0x0A,0x00
       0000099D 78 74 09 25 37 64 20 5B 46 49 
       000009A7 4C 45 5D 0A 00 
  3337                                          [SECTION .text]
  3338 0000202F                                 	GLOBAL	_cmd_dir
  3339 0000202F                                 _cmd_dir:
  3340 0000202F 55                              	PUSH	EBP
  3341 00002030 89 E5                           	MOV	EBP,ESP
  3342 00002032 57                              	PUSH	EDI
  3343 00002033 56                              	PUSH	ESI
  3344 00002034 53                              	PUSH	EBX
  3345 00002035 8D 75 B4                        	LEA	ESI,DWORD [-76+EBP]
  3346 00002038 83 EC 40                        	SUB	ESP,64
  3347 0000203B 8B 7D 08                        	MOV	EDI,DWORD [8+EBP]
  3348 0000203E 8B 5F 14                        	MOV	EBX,DWORD [20+EDI]
  3349 00002041 8D 83 000007D0                  	LEA	EAX,DWORD [2000+EBX]
  3350 00002047 50                              	PUSH	EAX
  3351 00002048 68 [00000918]                   	PUSH	LC117
  3352 0000204D 56                              	PUSH	ESI
  3353 0000204E E8 [00000000]                   	CALL	_sprintf
  3354 00002053 56                              	PUSH	ESI
  3355 00002054 57                              	PUSH	EDI
  3356 00002055 E8 FFFFE542                     	CALL	_cons_putstr
  3357 0000205A FF B3 000007DC                  	PUSH	DWORD [2012+EBX]
  3358 00002060 68 [0000092B]                   	PUSH	LC118
  3359 00002065 56                              	PUSH	ESI
  3360 00002066 E8 [00000000]                   	CALL	_sprintf
  3361 0000206B 83 C4 20                        	ADD	ESP,32
  3362 0000206E 56                              	PUSH	ESI
  3363 0000206F E8 FFFFDF8C                     	CALL	_debug_print
  3364 00002074 FF B3 000007D8                  	PUSH	DWORD [2008+EBX]
  3365 0000207A 68 [00000944]                   	PUSH	LC119
  3366 0000207F 56                              	PUSH	ESI
  3367 00002080 E8 [00000000]                   	CALL	_sprintf
  3368 00002085 56                              	PUSH	ESI
  3369 00002086 31 F6                           	XOR	ESI,ESI
  3370 00002088 E8 FFFFDF73                     	CALL	_debug_print
  3371 0000208D 83 C4 14                        	ADD	ESP,20
  3372 00002090                                 L575:
  3373 00002090 8A 03                           	MOV	AL,BYTE [EBX]
  3374 00002092 84 C0                           	TEST	AL,AL
  3375 00002094 74 1E                           	JE	L557
  3376 00002096 3C E5                           	CMP	AL,-27
  3377 00002098 74 11                           	JE	L558
  3378 0000209A 8A 43 0B                        	MOV	AL,BYTE [11+EBX]
  3379 0000209D A9 00000018                     	TEST	EAX,24
  3380 000020A2 74 6D                           	JE	L583
  3381 000020A4 83 E0 10                        	AND	EAX,16
  3382 000020A7 84 C0                           	TEST	AL,AL
  3383 000020A9 75 35                           	JNE	L584
  3384 000020AB                                 L558:
  3385 000020AB 46                              	INC	ESI
  3386 000020AC 83 C3 28                        	ADD	EBX,40
  3387 000020AF 83 FE 31                        	CMP	ESI,49
  3388 000020B2 7E DC                           	JLE	L575
  3389 000020B4                                 L557:
  3390 000020B4 85 F6                           	TEST	ESI,ESI
  3391 000020B6 74 0E                           	JE	L585
  3392 000020B8                                 L576:
  3393 000020B8 57                              	PUSH	EDI
  3394 000020B9 E8 FFFFE3B9                     	CALL	_cons_newline
  3395 000020BE 8D 65 F4                        	LEA	ESP,DWORD [-12+EBP]
  3396 000020C1 5B                              	POP	EBX
  3397 000020C2 5E                              	POP	ESI
  3398 000020C3 5F                              	POP	EDI
  3399 000020C4 5D                              	POP	EBP
  3400 000020C5 C3                              	RET
  3401 000020C6                                 L585:
  3402 000020C6 68 [0000095C]                   	PUSH	LC122
  3403 000020CB 8D 5D B4                        	LEA	EBX,DWORD [-76+EBP]
  3404 000020CE 53                              	PUSH	EBX
  3405 000020CF E8 [00000000]                   	CALL	_sprintf
  3406 000020D4 53                              	PUSH	EBX
  3407 000020D5 57                              	PUSH	EDI
  3408 000020D6 E8 FFFFE4C1                     	CALL	_cons_putstr
  3409 000020DB 83 C4 10                        	ADD	ESP,16
  3410 000020DE EB D8                           	JMP	L576
  3411 000020E0                                 L584:
  3412 000020E0 FF 73 1C                        	PUSH	DWORD [28+EBX]
  3413 000020E3 68 [0000097B]                   	PUSH	LC121
  3414 000020E8 8D 45 B4                        	LEA	EAX,DWORD [-76+EBP]
  3415 000020EB 50                              	PUSH	EAX
  3416 000020EC E8 [00000000]                   	CALL	_sprintf
  3417 000020F1 83 C4 0C                        	ADD	ESP,12
  3418 000020F4 31 D2                           	XOR	EDX,EDX
  3419 000020F6                                 L574:
  3420 000020F6 8A 04 1A                        	MOV	AL,BYTE [EDX+EBX*1]
  3421 000020F9 88 44 15 B4                     	MOV	BYTE [-76+EBP+EDX*1],AL
  3422 000020FD 42                              	INC	EDX
  3423 000020FE 83 FA 07                        	CMP	EDX,7
  3424 00002101 7E F3                           	JLE	L574
  3425 00002103                                 L582:
  3426 00002103 8D 45 B4                        	LEA	EAX,DWORD [-76+EBP]
  3427 00002106 50                              	PUSH	EAX
  3428 00002107 57                              	PUSH	EDI
  3429 00002108 E8 FFFFE48F                     	CALL	_cons_putstr
  3430 0000210D 58                              	POP	EAX
  3431 0000210E 5A                              	POP	EDX
  3432 0000210F EB 9A                           	JMP	L558
  3433 00002111                                 L583:
  3434 00002111 FF 73 1C                        	PUSH	DWORD [28+EBX]
  3435 00002114 68 [00000993]                   	PUSH	LC120
  3436 00002119 8D 45 B4                        	LEA	EAX,DWORD [-76+EBP]
  3437 0000211C 50                              	PUSH	EAX
  3438 0000211D E8 [00000000]                   	CALL	_sprintf
  3439 00002122 83 C4 0C                        	ADD	ESP,12
  3440 00002125 31 D2                           	XOR	EDX,EDX
  3441 00002127                                 L567:
  3442 00002127 8A 04 1A                        	MOV	AL,BYTE [EDX+EBX*1]
  3443 0000212A 88 44 15 B4                     	MOV	BYTE [-76+EBP+EDX*1],AL
  3444 0000212E 42                              	INC	EDX
  3445 0000212F 83 FA 07                        	CMP	EDX,7
  3446 00002132 7E F3                           	JLE	L567
  3447 00002134 8A 43 08                        	MOV	AL,BYTE [8+EBX]
  3448 00002137 88 45 BD                        	MOV	BYTE [-67+EBP],AL
  3449 0000213A 8A 43 09                        	MOV	AL,BYTE [9+EBX]
  3450 0000213D 88 45 BE                        	MOV	BYTE [-66+EBP],AL
  3451 00002140 8A 43 0A                        	MOV	AL,BYTE [10+EBX]
  3452 00002143 88 45 BF                        	MOV	BYTE [-65+EBP],AL
  3453 00002146 EB BB                           	JMP	L582
  3454                                          [SECTION .data]
  3455 000009AC                                 LC123:
  3456 000009AC 66 69 6C 65 74 79 70 65 3D 30   	DB	"filetype=0x%02x",0x0A,0x00
       000009B6 78 25 30 32 78 0A 00 
  3457                                          [SECTION .text]
  3458 00002148                                 	GLOBAL	_cmd_fddir
  3459 00002148                                 _cmd_fddir:
  3460 00002148 55                              	PUSH	EBP
  3461 00002149 89 E5                           	MOV	EBP,ESP
  3462 0000214B 57                              	PUSH	EDI
  3463 0000214C 56                              	PUSH	ESI
  3464 0000214D 31 FF                           	XOR	EDI,EDI
  3465 0000214F 53                              	PUSH	EBX
  3466 00002150 31 F6                           	XOR	ESI,ESI
  3467 00002152 83 EC 20                        	SUB	ESP,32
  3468 00002155                                 L599:
  3469 00002155 8A 86 00102600                  	MOV	AL,BYTE [1058304+ESI]
  3470 0000215B 84 C0                           	TEST	AL,AL
  3471 0000215D 74 16                           	JE	L588
  3472 0000215F 3C E5                           	CMP	AL,-27
  3473 00002161 74 09                           	JE	L589
  3474 00002163 F6 86 0010260B 18               	TEST	BYTE [1058315+ESI],24
  3475 0000216A 74 19                           	JE	L603
  3476 0000216C                                 L589:
  3477 0000216C 47                              	INC	EDI
  3478 0000216D 83 C6 20                        	ADD	ESI,32
  3479 00002170 83 FF 31                        	CMP	EDI,49
  3480 00002173 7E E0                           	JLE	L599
  3481 00002175                                 L588:
  3482 00002175 FF 75 08                        	PUSH	DWORD [8+EBP]
  3483 00002178 E8 FFFFE2FA                     	CALL	_cons_newline
  3484 0000217D 8D 65 F4                        	LEA	ESP,DWORD [-12+EBP]
  3485 00002180 5B                              	POP	EBX
  3486 00002181 5E                              	POP	ESI
  3487 00002182 5F                              	POP	EDI
  3488 00002183 5D                              	POP	EBP
  3489 00002184 C3                              	RET
  3490 00002185                                 L603:
  3491 00002185 FF B6 0010261C                  	PUSH	DWORD [1058332+ESI]
  3492 0000218B 68 [00000904]                   	PUSH	LC115
  3493 00002190 8D 45 D4                        	LEA	EAX,DWORD [-44+EBP]
  3494 00002193 50                              	PUSH	EAX
  3495 00002194 E8 [00000000]                   	CALL	_sprintf
  3496 00002199 8D 96 00102600                  	LEA	EDX,DWORD [1058304+ESI]
  3497 0000219F 31 C9                           	XOR	ECX,ECX
  3498 000021A1 83 C4 0C                        	ADD	ESP,12
  3499 000021A4                                 L598:
  3500 000021A4 8A 02                           	MOV	AL,BYTE [EDX]
  3501 000021A6 42                              	INC	EDX
  3502 000021A7 88 44 0D D4                     	MOV	BYTE [-44+EBP+ECX*1],AL
  3503 000021AB 41                              	INC	ECX
  3504 000021AC 83 F9 07                        	CMP	ECX,7
  3505 000021AF 7E F3                           	JLE	L598
  3506 000021B1 8A 86 00102608                  	MOV	AL,BYTE [1058312+ESI]
  3507 000021B7 8D 5D D4                        	LEA	EBX,DWORD [-44+EBP]
  3508 000021BA 88 45 DD                        	MOV	BYTE [-35+EBP],AL
  3509 000021BD 8A 86 00102609                  	MOV	AL,BYTE [1058313+ESI]
  3510 000021C3 88 45 DE                        	MOV	BYTE [-34+EBP],AL
  3511 000021C6 8A 86 0010260A                  	MOV	AL,BYTE [1058314+ESI]
  3512 000021CC 53                              	PUSH	EBX
  3513 000021CD FF 75 08                        	PUSH	DWORD [8+EBP]
  3514 000021D0 88 45 DF                        	MOV	BYTE [-33+EBP],AL
  3515 000021D3 E8 FFFFE3F2                     	CALL	_cons_putstr0
  3516 000021D8 0F B6 86 0010260B               	MOVZX	EAX,BYTE [1058315+ESI]
  3517 000021DF 50                              	PUSH	EAX
  3518 000021E0 68 [000009AC]                   	PUSH	LC123
  3519 000021E5 53                              	PUSH	EBX
  3520 000021E6 E8 [00000000]                   	CALL	_sprintf
  3521 000021EB 53                              	PUSH	EBX
  3522 000021EC FF 75 08                        	PUSH	DWORD [8+EBP]
  3523 000021EF E8 FFFFE3D6                     	CALL	_cons_putstr0
  3524 000021F4 83 C4 1C                        	ADD	ESP,28
  3525 000021F7 E9 FFFFFF70                     	JMP	L589
  3526 000021FC                                 	GLOBAL	_cmd_exit
  3527 000021FC                                 _cmd_exit:
  3528 000021FC 55                              	PUSH	EBP
  3529 000021FD 89 E5                           	MOV	EBP,ESP
  3530 000021FF 57                              	PUSH	EDI
  3531 00002200 56                              	PUSH	ESI
  3532 00002201 53                              	PUSH	EBX
  3533 00002202 50                              	PUSH	EAX
  3534 00002203 8B 5D 08                        	MOV	EBX,DWORD [8+EBP]
  3535 00002206 E8 [00000000]                   	CALL	_task_now
  3536 0000220B 8B 35 00000FE4                  	MOV	ESI,DWORD [4068]
  3537 00002211 8B 3D 00000FEC                  	MOV	EDI,DWORD [4076]
  3538 00002217 89 45 F0                        	MOV	DWORD [-16+EBP],EAX
  3539 0000221A 83 3B 00                        	CMP	DWORD [EBX],0
  3540 0000221D 74 09                           	JE	L605
  3541 0000221F FF 73 10                        	PUSH	DWORD [16+EBX]
  3542 00002222 E8 [00000000]                   	CALL	_timer_cancel
  3543 00002227 58                              	POP	EAX
  3544 00002228                                 L605:
  3545 00002228 68 00002D00                     	PUSH	11520
  3546 0000222D FF 75 0C                        	PUSH	DWORD [12+EBP]
  3547 00002230 68 003C0000                     	PUSH	3932160
  3548 00002235 E8 [00000000]                   	CALL	_memman_free_4k
  3549 0000223A E8 [00000000]                   	CALL	_io_cli
  3550 0000223F 8B 03                           	MOV	EAX,DWORD [EBX]
  3551 00002241 83 C4 0C                        	ADD	ESP,12
  3552 00002244 85 C0                           	TEST	EAX,EAX
  3553 00002246 74 2E                           	JE	L606
  3554 00002248 29 F0                           	SUB	EAX,ESI
  3555 0000224A 2D 00000414                     	SUB	EAX,1044
  3556 0000224F C1 F8 03                        	SAR	EAX,3
  3557 00002252 69 C0 CCCCCCCD                  	IMUL	EAX,EAX,-858993459
  3558 00002258 05 00000300                     	ADD	EAX,768
  3559 0000225D                                 L611:
  3560 0000225D 50                              	PUSH	EAX
  3561 0000225E 57                              	PUSH	EDI
  3562 0000225F E8 [00000000]                   	CALL	_fifo32_put
  3563 00002264 5B                              	POP	EBX
  3564 00002265 5E                              	POP	ESI
  3565 00002266 E8 [00000000]                   	CALL	_io_sti
  3566 0000226B                                 L608:
  3567 0000226B FF 75 F0                        	PUSH	DWORD [-16+EBP]
  3568 0000226E E8 [00000000]                   	CALL	_task_sleep
  3569 00002273 59                              	POP	ECX
  3570 00002274 EB F5                           	JMP	L608
  3571 00002276                                 L606:
  3572 00002276 8B 45 F0                        	MOV	EAX,DWORD [-16+EBP]
  3573 00002279 2B 05 [00000000]                	SUB	EAX,DWORD [_taskctl]
  3574 0000227F 2D 00000FF8                     	SUB	EAX,4088
  3575 00002284 C1 F8 06                        	SAR	EAX,6
  3576 00002287 69 C0 AAAAAAAB                  	IMUL	EAX,EAX,-1431655765
  3577 0000228D 05 00000400                     	ADD	EAX,1024
  3578 00002292 EB C9                           	JMP	L611
  3579 00002294                                 	GLOBAL	_cmd_start
  3580 00002294                                 _cmd_start:
  3581 00002294 55                              	PUSH	EBP
  3582 00002295 89 E5                           	MOV	EBP,ESP
  3583 00002297 57                              	PUSH	EDI
  3584 00002298 56                              	PUSH	ESI
  3585 00002299 53                              	PUSH	EBX
  3586 0000229A 57                              	PUSH	EDI
  3587 0000229B 57                              	PUSH	EDI
  3588 0000229C 8B 45 08                        	MOV	EAX,DWORD [8+EBP]
  3589 0000229F 8B 7D 0C                        	MOV	EDI,DWORD [12+EBP]
  3590 000022A2 8B 35 00000FE4                  	MOV	ESI,DWORD [4068]
  3591 000022A8 89 45 F0                        	MOV	DWORD [-16+EBP],EAX
  3592 000022AB FF 75 10                        	PUSH	DWORD [16+EBP]
  3593 000022AE 56                              	PUSH	ESI
  3594 000022AF E8 [00000000]                   	CALL	_open_console
  3595 000022B4 89 C3                           	MOV	EBX,EAX
  3596 000022B6 8B 40 24                        	MOV	EAX,DWORD [36+EAX]
  3597 000022B9 83 C0 10                        	ADD	EAX,16
  3598 000022BC 89 45 EC                        	MOV	DWORD [-20+EBP],EAX
  3599 000022BF 6A 04                           	PUSH	4
  3600 000022C1 6A 20                           	PUSH	32
  3601 000022C3 53                              	PUSH	EBX
  3602 000022C4 E8 [00000000]                   	CALL	_sheet_slide
  3603 000022C9 FF 76 10                        	PUSH	DWORD [16+ESI]
  3604 000022CC 53                              	PUSH	EBX
  3605 000022CD BB 00000006                     	MOV	EBX,6
  3606 000022D2 E8 [00000000]                   	CALL	_sheet_updown
  3607 000022D7 83 C4 1C                        	ADD	ESP,28
  3608 000022DA 80 7F 06 00                     	CMP	BYTE [6+EDI],0
  3609 000022DE 75 21                           	JNE	L617
  3610 000022E0                                 L619:
  3611 000022E0 68 0000010A                     	PUSH	266
  3612 000022E5 FF 75 EC                        	PUSH	DWORD [-20+EBP]
  3613 000022E8 E8 [00000000]                   	CALL	_fifo32_put
  3614 000022ED 58                              	POP	EAX
  3615 000022EE 8B 45 F0                        	MOV	EAX,DWORD [-16+EBP]
  3616 000022F1 5A                              	POP	EDX
  3617 000022F2 89 45 08                        	MOV	DWORD [8+EBP],EAX
  3618 000022F5 8D 65 F4                        	LEA	ESP,DWORD [-12+EBP]
  3619 000022F8 5B                              	POP	EBX
  3620 000022F9 5E                              	POP	ESI
  3621 000022FA 5F                              	POP	EDI
  3622 000022FB 5D                              	POP	EBP
  3623 000022FC E9 FFFFE176                     	JMP	_cons_newline
  3624 00002301                                 L617:
  3625 00002301 0F BE 04 3B                     	MOVSX	EAX,BYTE [EBX+EDI*1]
  3626 00002305 05 00000100                     	ADD	EAX,256
  3627 0000230A 43                              	INC	EBX
  3628 0000230B 50                              	PUSH	EAX
  3629 0000230C FF 75 EC                        	PUSH	DWORD [-20+EBP]
  3630 0000230F E8 [00000000]                   	CALL	_fifo32_put
  3631 00002314 80 3C 3B 00                     	CMP	BYTE [EBX+EDI*1],0
  3632 00002318 59                              	POP	ECX
  3633 00002319 5E                              	POP	ESI
  3634 0000231A 75 E5                           	JNE	L617
  3635 0000231C EB C2                           	JMP	L619
  3636 0000231E                                 	GLOBAL	_cmd_ncst
  3637 0000231E                                 _cmd_ncst:
  3638 0000231E 55                              	PUSH	EBP
  3639 0000231F 89 E5                           	MOV	EBP,ESP
  3640 00002321 57                              	PUSH	EDI
  3641 00002322 56                              	PUSH	ESI
  3642 00002323 BE 00000005                     	MOV	ESI,5
  3643 00002328 53                              	PUSH	EBX
  3644 00002329 51                              	PUSH	ECX
  3645 0000232A 8B 45 08                        	MOV	EAX,DWORD [8+EBP]
  3646 0000232D 8B 5D 0C                        	MOV	EBX,DWORD [12+EBP]
  3647 00002330 89 45 F0                        	MOV	DWORD [-16+EBP],EAX
  3648 00002333 FF 75 10                        	PUSH	DWORD [16+EBP]
  3649 00002336 6A 00                           	PUSH	0
  3650 00002338 E8 [00000000]                   	CALL	_open_constask
  3651 0000233D 80 7B 05 00                     	CMP	BYTE [5+EBX],0
  3652 00002341 8D 78 10                        	LEA	EDI,DWORD [16+EAX]
  3653 00002344 58                              	POP	EAX
  3654 00002345 5A                              	POP	EDX
  3655 00002346 75 1F                           	JNE	L625
  3656 00002348                                 L627:
  3657 00002348 68 0000010A                     	PUSH	266
  3658 0000234D 57                              	PUSH	EDI
  3659 0000234E E8 [00000000]                   	CALL	_fifo32_put
  3660 00002353 58                              	POP	EAX
  3661 00002354 8B 45 F0                        	MOV	EAX,DWORD [-16+EBP]
  3662 00002357 5A                              	POP	EDX
  3663 00002358 89 45 08                        	MOV	DWORD [8+EBP],EAX
  3664 0000235B 8D 65 F4                        	LEA	ESP,DWORD [-12+EBP]
  3665 0000235E 5B                              	POP	EBX
  3666 0000235F 5E                              	POP	ESI
  3667 00002360 5F                              	POP	EDI
  3668 00002361 5D                              	POP	EBP
  3669 00002362 E9 FFFFE110                     	JMP	_cons_newline
  3670 00002367                                 L625:
  3671 00002367 0F BE 04 1E                     	MOVSX	EAX,BYTE [ESI+EBX*1]
  3672 0000236B 05 00000100                     	ADD	EAX,256
  3673 00002370 46                              	INC	ESI
  3674 00002371 50                              	PUSH	EAX
  3675 00002372 57                              	PUSH	EDI
  3676 00002373 E8 [00000000]                   	CALL	_fifo32_put
  3677 00002378 80 3C 1E 00                     	CMP	BYTE [ESI+EBX*1],0
  3678 0000237C 59                              	POP	ECX
  3679 0000237D 58                              	POP	EAX
  3680 0000237E 75 E7                           	JNE	L625
  3681 00002380 EB C6                           	JMP	L627
  3682                                          [SECTION .data]
  3683 000009BD                                 LC124:
  3684 000009BD 6D 6F 64 65 20 6E 75 6D 62 65   	DB	"mode number error.",0x0A,0x00
       000009C7 72 20 65 72 72 6F 72 2E 0A 00 
  3685                                          [SECTION .text]
  3686 00002382                                 	GLOBAL	_cmd_langmode
  3687 00002382                                 _cmd_langmode:
  3688 00002382 55                              	PUSH	EBP
  3689 00002383 89 E5                           	MOV	EBP,ESP
  3690 00002385 56                              	PUSH	ESI
  3691 00002386 53                              	PUSH	EBX
  3692 00002387 8B 5D 0C                        	MOV	EBX,DWORD [12+EBP]
  3693 0000238A 8B 75 08                        	MOV	ESI,DWORD [8+EBP]
  3694 0000238D E8 [00000000]                   	CALL	_task_now
  3695 00002392 8A 53 09                        	MOV	DL,BYTE [9+EBX]
  3696 00002395 83 EA 30                        	SUB	EDX,48
  3697 00002398 80 FA 02                        	CMP	DL,2
  3698 0000239B 77 14                           	JA	L629
  3699 0000239D 88 90 000000BC                  	MOV	BYTE [188+EAX],DL
  3700 000023A3                                 L630:
  3701 000023A3 89 75 08                        	MOV	DWORD [8+EBP],ESI
  3702 000023A6 8D 65 F8                        	LEA	ESP,DWORD [-8+EBP]
  3703 000023A9 5B                              	POP	EBX
  3704 000023AA 5E                              	POP	ESI
  3705 000023AB 5D                              	POP	EBP
  3706 000023AC E9 FFFFE0C6                     	JMP	_cons_newline
  3707 000023B1                                 L629:
  3708 000023B1 68 [000009BD]                   	PUSH	LC124
  3709 000023B6 56                              	PUSH	ESI
  3710 000023B7 E8 FFFFE20E                     	CALL	_cons_putstr0
  3711 000023BC 5B                              	POP	EBX
  3712 000023BD 58                              	POP	EAX
  3713 000023BE EB E3                           	JMP	L630
  3714                                          [SECTION .data]
  3715 000009D1                                 LC125:
  3716 000009D1 48 61 72 69 00                  	DB	"Hari",0x00
  3717 000009D6                                 LC126:
  3718 000009D6 2E 68 72 62 20 66 69 6C 65 20   	DB	".hrb file format error.",0x0A,0x00
       000009E0 66 6F 72 6D 61 74 20 65 72 72 
       000009EA 6F 72 2E 0A 00 
  3719                                          [SECTION .text]
  3720 000023C0                                 	GLOBAL	_cmd_app
  3721 000023C0                                 _cmd_app:
  3722 000023C0 55                              	PUSH	EBP
  3723 000023C1 89 E5                           	MOV	EBP,ESP
  3724 000023C3 57                              	PUSH	EDI
  3725 000023C4 56                              	PUSH	ESI
  3726 000023C5 31 F6                           	XOR	ESI,ESI
  3727 000023C7 53                              	PUSH	EBX
  3728 000023C8 83 EC 34                        	SUB	ESP,52
  3729 000023CB 8B 5D 10                        	MOV	EBX,DWORD [16+EBP]
  3730 000023CE E8 [00000000]                   	CALL	_task_now
  3731 000023D3 89 45 C8                        	MOV	DWORD [-56+EBP],EAX
  3732 000023D6                                 L637:
  3733 000023D6 8A 04 1E                        	MOV	AL,BYTE [ESI+EBX*1]
  3734 000023D9 3C 20                           	CMP	AL,32
  3735 000023DB 7E 0A                           	JLE	L633
  3736 000023DD 88 44 35 D4                     	MOV	BYTE [-44+EBP+ESI*1],AL
  3737 000023E1 46                              	INC	ESI
  3738 000023E2 83 FE 0C                        	CMP	ESI,12
  3739 000023E5 7E EF                           	JLE	L637
  3740 000023E7                                 L633:
  3741 000023E7 68 000000E0                     	PUSH	224
  3742 000023EC 8D 5D D4                        	LEA	EBX,DWORD [-44+EBP]
  3743 000023EF 68 00102600                     	PUSH	1058304
  3744 000023F4 53                              	PUSH	EBX
  3745 000023F5 C6 44 35 D4 00                  	MOV	BYTE [-44+EBP+ESI*1],0
  3746 000023FA E8 [00000000]                   	CALL	_file_search
  3747 000023FF 83 C4 0C                        	ADD	ESP,12
  3748 00002402 89 C2                           	MOV	EDX,EAX
  3749 00002404 85 C0                           	TEST	EAX,EAX
  3750 00002406 0F 84 000001B6                  	JE	L667
  3751 0000240C                                 L666:
  3752 0000240C 8B 42 1C                        	MOV	EAX,DWORD [28+EDX]
  3753 0000240F 89 45 D0                        	MOV	DWORD [-48+EBP],EAX
  3754 00002412 8D 45 D0                        	LEA	EAX,DWORD [-48+EBP]
  3755 00002415 FF 75 0C                        	PUSH	DWORD [12+EBP]
  3756 00002418 50                              	PUSH	EAX
  3757 00002419 0F B7 42 1A                     	MOVZX	EAX,WORD [26+EDX]
  3758 0000241D 50                              	PUSH	EAX
  3759 0000241E E8 [00000000]                   	CALL	_file_loadfile2
  3760 00002423 83 C4 0C                        	ADD	ESP,12
  3761 00002426 83 7D D0 23                     	CMP	DWORD [-48+EBP],35
  3762 0000242A 89 45 CC                        	MOV	DWORD [-52+EBP],EAX
  3763 0000242D 7E 1C                           	JLE	L640
  3764 0000242F 89 C6                           	MOV	ESI,EAX
  3765 00002431 BF [000009D1]                   	MOV	EDI,LC125
  3766 00002436 FC                              	CLD
  3767 00002437 83 C6 04                        	ADD	ESI,4
  3768 0000243A B9 00000004                     	MOV	ECX,4
  3769 0000243F F3                              	REPE
  3770 00002440 A6                              	CMPSB
  3771 00002441 75 08                           	JNE	L640
  3772 00002443 8B 45 CC                        	MOV	EAX,DWORD [-52+EBP]
  3773 00002446 80 38 00                        	CMP	BYTE [EAX],0
  3774 00002449 74 34                           	JE	L668
  3775 0000244B                                 L640:
  3776 0000244B 68 [000009D6]                   	PUSH	LC126
  3777 00002450 FF 75 08                        	PUSH	DWORD [8+EBP]
  3778 00002453 E8 FFFFE172                     	CALL	_cons_putstr0
  3779 00002458 58                              	POP	EAX
  3780 00002459 5A                              	POP	EDX
  3781 0000245A                                 L658:
  3782 0000245A FF 75 D0                        	PUSH	DWORD [-48+EBP]
  3783 0000245D FF 75 CC                        	PUSH	DWORD [-52+EBP]
  3784 00002460 68 003C0000                     	PUSH	3932160
  3785 00002465 E8 [00000000]                   	CALL	_memman_free_4k
  3786 0000246A FF 75 08                        	PUSH	DWORD [8+EBP]
  3787 0000246D E8 FFFFE005                     	CALL	_cons_newline
  3788 00002472 B8 00000001                     	MOV	EAX,1
  3789 00002477                                 L631:
  3790 00002477 8D 65 F4                        	LEA	ESP,DWORD [-12+EBP]
  3791 0000247A 5B                              	POP	EBX
  3792 0000247B 5E                              	POP	ESI
  3793 0000247C 5F                              	POP	EDI
  3794 0000247D 5D                              	POP	EBP
  3795 0000247E C3                              	RET
  3796 0000247F                                 L668:
  3797 0000247F 8B 10                           	MOV	EDX,DWORD [EAX]
  3798 00002481 8B 40 0C                        	MOV	EAX,DWORD [12+EAX]
  3799 00002484 89 55 C4                        	MOV	DWORD [-60+EBP],EDX
  3800 00002487 89 45 C0                        	MOV	DWORD [-64+EBP],EAX
  3801 0000248A 8B 55 CC                        	MOV	EDX,DWORD [-52+EBP]
  3802 0000248D 8B 5A 10                        	MOV	EBX,DWORD [16+EDX]
  3803 00002490 8B 72 14                        	MOV	ESI,DWORD [20+EDX]
  3804 00002493 FF 75 C4                        	PUSH	DWORD [-60+EBP]
  3805 00002496 68 003C0000                     	PUSH	3932160
  3806 0000249B E8 [00000000]                   	CALL	_memman_alloc_4k
  3807 000024A0 89 C7                           	MOV	EDI,EAX
  3808 000024A2 8B 45 C8                        	MOV	EAX,DWORD [-56+EBP]
  3809 000024A5 89 B8 000000A8                  	MOV	DWORD [168+EAX],EDI
  3810 000024AB 8B 45 D0                        	MOV	EAX,DWORD [-48+EBP]
  3811 000024AE 68 000040FA                     	PUSH	16634
  3812 000024B3 48                              	DEC	EAX
  3813 000024B4 FF 75 CC                        	PUSH	DWORD [-52+EBP]
  3814 000024B7 50                              	PUSH	EAX
  3815 000024B8 8B 45 C8                        	MOV	EAX,DWORD [-56+EBP]
  3816 000024BB 05 00000094                     	ADD	EAX,148
  3817 000024C0 50                              	PUSH	EAX
  3818 000024C1 E8 [00000000]                   	CALL	_set_segmdesc
  3819 000024C6 8B 45 C4                        	MOV	EAX,DWORD [-60+EBP]
  3820 000024C9 68 000040F2                     	PUSH	16626
  3821 000024CE 48                              	DEC	EAX
  3822 000024CF 57                              	PUSH	EDI
  3823 000024D0 50                              	PUSH	EAX
  3824 000024D1 8B 45 C8                        	MOV	EAX,DWORD [-56+EBP]
  3825 000024D4 05 0000009C                     	ADD	EAX,156
  3826 000024D9 50                              	PUSH	EAX
  3827 000024DA E8 [00000000]                   	CALL	_set_segmdesc
  3828 000024DF 83 C4 28                        	ADD	ESP,40
  3829 000024E2 85 DB                           	TEST	EBX,EBX
  3830 000024E4 7E 16                           	JLE	L661
  3831 000024E6 8B 45 CC                        	MOV	EAX,DWORD [-52+EBP]
  3832 000024E9 8B 4D C0                        	MOV	ECX,DWORD [-64+EBP]
  3833 000024EC 01 F9                           	ADD	ECX,EDI
  3834 000024EE 8D 14 30                        	LEA	EDX,DWORD [EAX+ESI*1]
  3835 000024F1 89 DE                           	MOV	ESI,EBX
  3836 000024F3                                 L645:
  3837 000024F3 8A 02                           	MOV	AL,BYTE [EDX]
  3838 000024F5 42                              	INC	EDX
  3839 000024F6 88 01                           	MOV	BYTE [ECX],AL
  3840 000024F8 41                              	INC	ECX
  3841 000024F9 4E                              	DEC	ESI
  3842 000024FA 75 F7                           	JNE	L645
  3843 000024FC                                 L661:
  3844 000024FC 8B 45 C8                        	MOV	EAX,DWORD [-56+EBP]
  3845 000024FF BE 000000FF                     	MOV	ESI,255
  3846 00002504 83 C0 30                        	ADD	EAX,48
  3847 00002507 50                              	PUSH	EAX
  3848 00002508 6A 0C                           	PUSH	12
  3849 0000250A FF 75 C0                        	PUSH	DWORD [-64+EBP]
  3850 0000250D 6A 04                           	PUSH	4
  3851 0000250F 6A 1B                           	PUSH	27
  3852 00002511 E8 [00000000]                   	CALL	_start_app
  3853 00002516 8B 1D 00000FE4                  	MOV	EBX,DWORD [4068]
  3854 0000251C 83 C4 14                        	ADD	ESP,20
  3855 0000251F 81 C3 00000414                  	ADD	EBX,1044
  3856 00002525                                 L651:
  3857 00002525 8B 43 1C                        	MOV	EAX,DWORD [28+EBX]
  3858 00002528 83 E0 11                        	AND	EAX,17
  3859 0000252B 83 F8 11                        	CMP	EAX,17
  3860 0000252E 74 7A                           	JE	L669
  3861 00002530                                 L648:
  3862 00002530 83 C3 28                        	ADD	EBX,40
  3863 00002533 4E                              	DEC	ESI
  3864 00002534 79 EF                           	JNS	L651
  3865 00002536 31 DB                           	XOR	EBX,EBX
  3866 00002538 BE 00000007                     	MOV	ESI,7
  3867 0000253D                                 L657:
  3868 0000253D 8B 55 C8                        	MOV	EDX,DWORD [-56+EBP]
  3869 00002540 8B 82 000000B0                  	MOV	EAX,DWORD [176+EDX]
  3870 00002546 83 3C 18 00                     	CMP	DWORD [EAX+EBX*1],0
  3871 0000254A 75 32                           	JNE	L670
  3872 0000254C                                 L654:
  3873 0000254C 83 C3 0C                        	ADD	EBX,12
  3874 0000254F 4E                              	DEC	ESI
  3875 00002550 79 EB                           	JNS	L657
  3876 00002552 8B 45 C8                        	MOV	EAX,DWORD [-56+EBP]
  3877 00002555 83 C0 10                        	ADD	EAX,16
  3878 00002558 50                              	PUSH	EAX
  3879 00002559 E8 [00000000]                   	CALL	_timer_cancelall
  3880 0000255E FF 75 C4                        	PUSH	DWORD [-60+EBP]
  3881 00002561 57                              	PUSH	EDI
  3882 00002562 68 003C0000                     	PUSH	3932160
  3883 00002567 E8 [00000000]                   	CALL	_memman_free_4k
  3884 0000256C 83 C4 10                        	ADD	ESP,16
  3885 0000256F 8B 45 C8                        	MOV	EAX,DWORD [-56+EBP]
  3886 00002572 C6 80 000000BD 00               	MOV	BYTE [189+EAX],0
  3887 00002579 E9 FFFFFEDC                     	JMP	L658
  3888 0000257E                                 L670:
  3889 0000257E FF 74 18 04                     	PUSH	DWORD [4+EAX+EBX*1]
  3890 00002582 8B 82 000000B0                  	MOV	EAX,DWORD [176+EDX]
  3891 00002588 FF 34 18                        	PUSH	DWORD [EAX+EBX*1]
  3892 0000258B 68 003C0000                     	PUSH	3932160
  3893 00002590 E8 [00000000]                   	CALL	_memman_free_4k
  3894 00002595 83 C4 0C                        	ADD	ESP,12
  3895 00002598 8B 55 C8                        	MOV	EDX,DWORD [-56+EBP]
  3896 0000259B 8B 82 000000B0                  	MOV	EAX,DWORD [176+EDX]
  3897 000025A1 C7 04 18 00000000               	MOV	DWORD [EAX+EBX*1],0
  3898 000025A8 EB A2                           	JMP	L654
  3899 000025AA                                 L669:
  3900 000025AA 8B 55 C8                        	MOV	EDX,DWORD [-56+EBP]
  3901 000025AD 39 53 24                        	CMP	DWORD [36+EBX],EDX
  3902 000025B0 0F 85 FFFFFF7A                  	JNE	L648
  3903 000025B6 53                              	PUSH	EBX
  3904 000025B7 E8 [00000000]                   	CALL	_sheet_free
  3905 000025BC 59                              	POP	ECX
  3906 000025BD E9 FFFFFF6E                     	JMP	L648
  3907 000025C2                                 L667:
  3908 000025C2 80 7C 35 D3 2E                  	CMP	BYTE [-45+EBP+ESI*1],46
  3909 000025C7 74 2E                           	JE	L638
  3910 000025C9 68 000000E0                     	PUSH	224
  3911 000025CE 68 00102600                     	PUSH	1058304
  3912 000025D3 53                              	PUSH	EBX
  3913 000025D4 C6 44 35 D4 2E                  	MOV	BYTE [-44+EBP+ESI*1],46
  3914 000025D9 C6 44 35 D5 48                  	MOV	BYTE [-43+EBP+ESI*1],72
  3915 000025DE C6 44 35 D6 52                  	MOV	BYTE [-42+EBP+ESI*1],82
  3916 000025E3 C6 44 35 D7 42                  	MOV	BYTE [-41+EBP+ESI*1],66
  3917 000025E8 C6 44 35 D8 00                  	MOV	BYTE [-40+EBP+ESI*1],0
  3918 000025ED E8 [00000000]                   	CALL	_file_search
  3919 000025F2 83 C4 0C                        	ADD	ESP,12
  3920 000025F5 89 C2                           	MOV	EDX,EAX
  3921 000025F7                                 L638:
  3922 000025F7 85 D2                           	TEST	EDX,EDX
  3923 000025F9 0F 85 FFFFFE0D                  	JNE	L666
  3924 000025FF 31 C0                           	XOR	EAX,EAX
  3925 00002601 E9 FFFFFE71                     	JMP	L631
  3926 00002606                                 	GLOBAL	_hrb_api
  3927 00002606                                 _hrb_api:
  3928 00002606 55                              	PUSH	EBP
  3929 00002607 89 E5                           	MOV	EBP,ESP
  3930 00002609 57                              	PUSH	EDI
  3931 0000260A 56                              	PUSH	ESI
  3932 0000260B 53                              	PUSH	EBX
  3933 0000260C 83 EC 18                        	SUB	ESP,24
  3934 0000260F 8B 75 10                        	MOV	ESI,DWORD [16+EBP]
  3935 00002612 8B 7D 20                        	MOV	EDI,DWORD [32+EBP]
  3936 00002615 E8 [00000000]                   	CALL	_task_now
  3937 0000261A 8B 0D 00000FE4                  	MOV	ECX,DWORD [4068]
  3938 00002620 89 4D E8                        	MOV	DWORD [-24+EBP],ECX
  3939 00002623 89 45 F0                        	MOV	DWORD [-16+EBP],EAX
  3940 00002626 8B 80 000000A8                  	MOV	EAX,DWORD [168+EAX]
  3941 0000262C 89 45 EC                        	MOV	DWORD [-20+EBP],EAX
  3942 0000262F 8B 55 F0                        	MOV	EDX,DWORD [-16+EBP]
  3943 00002632 A1 00000FEC                     	MOV	EAX,DWORD [4076]
  3944 00002637 89 45 E0                        	MOV	DWORD [-32+EBP],EAX
  3945 0000263A 8B 9A 000000A4                  	MOV	EBX,DWORD [164+EDX]
  3946 00002640 8B 45 1C                        	MOV	EAX,DWORD [28+EBP]
  3947 00002643 48                              	DEC	EAX
  3948 00002644 83 F8 1D                        	CMP	EAX,29
  3949 00002647 77 17                           	JA	L672
  3950 00002649 FF 24 85 [000009F0]             	JMP	DWORD [L754+EAX*4]
  3951                                          [SECTION .data]
  3952 000009EF 00                              	ALIGNB	4
  3953 000009F0                                 L754:
  3954 000009F0 [00002650]                      	DD	L673
  3955 000009F4 [0000266A]                      	DD	L674
  3956 000009F8 [0000267B]                      	DD	L675
  3957 000009FC [0000268B]                      	DD	L676
  3958 00000A00 [00002693]                      	DD	L677
  3959 00000A04 [00002719]                      	DD	L678
  3960 00000A08 [0000276D]                      	DD	L680
  3961 00000A0C [000027B3]                      	DD	L682
  3962 00000A10 [000027D4]                      	DD	L683
  3963 00000A14 [000027EF]                      	DD	L684
  3964 00000A18 [0000280A]                      	DD	L685
  3965 00000A1C [00002848]                      	DD	L687
  3966 00000A20 [0000285A]                      	DD	L688
  3967 00000A24 [000028AB]                      	DD	L692
  3968 00000A28 [000028B9]                      	DD	L694
  3969 00000A2C [000029A3]                      	DD	L705
  3970 00000A30 [000029B4]                      	DD	L706
  3971 00000A34 [000029D1]                      	DD	L707
  3972 00000A38 [000029E1]                      	DD	L708
  3973 00000A3C [000029EE]                      	DD	L709
  3974 00000A40 [00002A61]                      	DD	L712
  3975 00000A44 [00002AE4]                      	DD	L721
  3976 00000A48 [00002B01]                      	DD	L722
  3977 00000A4C [00002B4B]                      	DD	L730
  3978 00000A50 [00002B7B]                      	DD	L736
  3979 00000A54 [00002BAA]                      	DD	L743
  3980 00000A58 [00002BD4]                      	DD	L749
  3981 00000A5C [00002660]                      	DD	L672
  3982 00000A60 [00002660]                      	DD	L672
  3983 00000A64 [00002660]                      	DD	L672
  3984                                          [SECTION .text]
  3985 00002650                                 L673:
  3986 00002650 6A 01                           	PUSH	1
  3987 00002652 0F B6 45 24                     	MOVZX	EAX,BYTE [36+EBP]
  3988 00002656 50                              	PUSH	EAX
  3989 00002657 53                              	PUSH	EBX
  3990 00002658 E8 FFFFDD5F                     	CALL	_cons_putchar
  3991 0000265D                                 L759:
  3992 0000265D 83 C4 0C                        	ADD	ESP,12
  3993 00002660                                 L672:
  3994 00002660 31 C0                           	XOR	EAX,EAX
  3995 00002662                                 L671:
  3996 00002662 8D 65 F4                        	LEA	ESP,DWORD [-12+EBP]
  3997 00002665 5B                              	POP	EBX
  3998 00002666 5E                              	POP	ESI
  3999 00002667 5F                              	POP	EDI
  4000 00002668 5D                              	POP	EBP
  4001 00002669 C3                              	RET
  4002 0000266A                                 L674:
  4003 0000266A 8B 45 18                        	MOV	EAX,DWORD [24+EBP]
  4004 0000266D 03 45 EC                        	ADD	EAX,DWORD [-20+EBP]
  4005 00002670 50                              	PUSH	EAX
  4006 00002671 53                              	PUSH	EBX
  4007 00002672 E8 FFFFDF53                     	CALL	_cons_putstr0
  4008 00002677                                 L762:
  4009 00002677 5E                              	POP	ESI
  4010 00002678 5F                              	POP	EDI
  4011 00002679 EB E5                           	JMP	L672
  4012 0000267B                                 L675:
  4013 0000267B 8B 45 18                        	MOV	EAX,DWORD [24+EBP]
  4014 0000267E 57                              	PUSH	EDI
  4015 0000267F 03 45 EC                        	ADD	EAX,DWORD [-20+EBP]
  4016 00002682 50                              	PUSH	EAX
  4017 00002683 53                              	PUSH	EBX
  4018 00002684 E8 FFFFDF6F                     	CALL	_cons_putstr1
  4019 00002689 EB D2                           	JMP	L759
  4020 0000268B                                 L676:
  4021 0000268B 8B 45 F0                        	MOV	EAX,DWORD [-16+EBP]
  4022 0000268E 83 C0 30                        	ADD	EAX,48
  4023 00002691 EB CF                           	JMP	L671
  4024 00002693                                 L677:
  4025 00002693 FF 75 E8                        	PUSH	DWORD [-24+EBP]
  4026 00002696 E8 [00000000]                   	CALL	_sheet_alloc
  4027 0000269B 8B 5D 18                        	MOV	EBX,DWORD [24+EBP]
  4028 0000269E 8B 55 F0                        	MOV	EDX,DWORD [-16+EBP]
  4029 000026A1 03 5D EC                        	ADD	EBX,DWORD [-20+EBP]
  4030 000026A4 89 50 24                        	MOV	DWORD [36+EAX],EDX
  4031 000026A7 83 48 1C 10                     	OR	DWORD [28+EAX],16
  4032 000026AB FF 75 24                        	PUSH	DWORD [36+EBP]
  4033 000026AE FF 75 08                        	PUSH	DWORD [8+EBP]
  4034 000026B1 FF 75 0C                        	PUSH	DWORD [12+EBP]
  4035 000026B4 53                              	PUSH	EBX
  4036 000026B5 89 45 E4                        	MOV	DWORD [-28+EBP],EAX
  4037 000026B8 50                              	PUSH	EAX
  4038 000026B9 E8 [00000000]                   	CALL	_sheet_setbuf
  4039 000026BE 8B 55 EC                        	MOV	EDX,DWORD [-20+EBP]
  4040 000026C1 6A 00                           	PUSH	0
  4041 000026C3 8D 04 3A                        	LEA	EAX,DWORD [EDX+EDI*1]
  4042 000026C6 50                              	PUSH	EAX
  4043 000026C7 FF 75 08                        	PUSH	DWORD [8+EBP]
  4044 000026CA FF 75 0C                        	PUSH	DWORD [12+EBP]
  4045 000026CD 53                              	PUSH	EBX
  4046 000026CE BB 00000002                     	MOV	EBX,2
  4047 000026D3 E8 [00000000]                   	CALL	_make_window8
  4048 000026D8 8B 4D E8                        	MOV	ECX,DWORD [-24+EBP]
  4049 000026DB 83 C4 2C                        	ADD	ESP,44
  4050 000026DE 8B 41 0C                        	MOV	EAX,DWORD [12+ECX]
  4051 000026E1 2B 45 08                        	SUB	EAX,DWORD [8+EBP]
  4052 000026E4 99                              	CDQ
  4053 000026E5 F7 FB                           	IDIV	EBX
  4054 000026E7 50                              	PUSH	EAX
  4055 000026E8 8B 41 08                        	MOV	EAX,DWORD [8+ECX]
  4056 000026EB 2B 45 0C                        	SUB	EAX,DWORD [12+EBP]
  4057 000026EE 99                              	CDQ
  4058 000026EF F7 FB                           	IDIV	EBX
  4059 000026F1 83 E0 FC                        	AND	EAX,-4
  4060 000026F4 50                              	PUSH	EAX
  4061 000026F5 FF 75 E4                        	PUSH	DWORD [-28+EBP]
  4062 000026F8 E8 [00000000]                   	CALL	_sheet_slide
  4063 000026FD 8B 4D E8                        	MOV	ECX,DWORD [-24+EBP]
  4064 00002700 FF 71 10                        	PUSH	DWORD [16+ECX]
  4065 00002703 FF 75 E4                        	PUSH	DWORD [-28+EBP]
  4066 00002706 E8 [00000000]                   	CALL	_sheet_updown
  4067 0000270B 8B 5D E4                        	MOV	EBX,DWORD [-28+EBP]
  4068 0000270E 89 5D 44                        	MOV	DWORD [68+EBP],EBX
  4069 00002711                                 L763:
  4070 00002711 83 C4 14                        	ADD	ESP,20
  4071 00002714 E9 FFFFFF47                     	JMP	L672
  4072 00002719                                 L678:
  4073 00002719 8B 45 18                        	MOV	EAX,DWORD [24+EBP]
  4074 0000271C 8B 55 EC                        	MOV	EDX,DWORD [-20+EBP]
  4075 0000271F 83 E0 FE                        	AND	EAX,-2
  4076 00002722 89 45 E4                        	MOV	DWORD [-28+EBP],EAX
  4077 00002725 8D 04 32                        	LEA	EAX,DWORD [EDX+ESI*1]
  4078 00002728 50                              	PUSH	EAX
  4079 00002729 8B 4D E4                        	MOV	ECX,DWORD [-28+EBP]
  4080 0000272C 0F BE 45 24                     	MOVSX	EAX,BYTE [36+EBP]
  4081 00002730 50                              	PUSH	EAX
  4082 00002731 FF 75 08                        	PUSH	DWORD [8+EBP]
  4083 00002734 FF 75 0C                        	PUSH	DWORD [12+EBP]
  4084 00002737 FF 71 04                        	PUSH	DWORD [4+ECX]
  4085 0000273A FF 31                           	PUSH	DWORD [ECX]
  4086 0000273C E8 [00000000]                   	CALL	_putfonts8_asc
  4087 00002741 83 C4 18                        	ADD	ESP,24
  4088 00002744 F7 45 18 00000001               	TEST	DWORD [24+EBP],1
  4089 0000274B 0F 85 FFFFFF0F                  	JNE	L672
  4090 00002751 8B 5D 0C                        	MOV	EBX,DWORD [12+EBP]
  4091 00002754 8B 45 08                        	MOV	EAX,DWORD [8+EBP]
  4092 00002757 83 C0 10                        	ADD	EAX,16
  4093 0000275A 50                              	PUSH	EAX
  4094 0000275B 8D 04 FB                        	LEA	EAX,DWORD [EBX+EDI*8]
  4095 0000275E 50                              	PUSH	EAX
  4096 0000275F FF 75 08                        	PUSH	DWORD [8+EBP]
  4097 00002762 53                              	PUSH	EBX
  4098 00002763                                 L764:
  4099 00002763 FF 75 E4                        	PUSH	DWORD [-28+EBP]
  4100 00002766                                 L761:
  4101 00002766 E8 [00000000]                   	CALL	_sheet_refresh
  4102 0000276B EB A4                           	JMP	L763
  4103 0000276D                                 L680:
  4104 0000276D FF 75 08                        	PUSH	DWORD [8+EBP]
  4105 00002770 8B 45 18                        	MOV	EAX,DWORD [24+EBP]
  4106 00002773 89 F2                           	MOV	EDX,ESI
  4107 00002775 FF 75 0C                        	PUSH	DWORD [12+EBP]
  4108 00002778 83 E0 FE                        	AND	EAX,-2
  4109 0000277B 57                              	PUSH	EDI
  4110 0000277C 89 45 E4                        	MOV	DWORD [-28+EBP],EAX
  4111 0000277F FF 75 24                        	PUSH	DWORD [36+EBP]
  4112 00002782 8B 4D E4                        	MOV	ECX,DWORD [-28+EBP]
  4113 00002785 0F B6 C2                        	MOVZX	EAX,DL
  4114 00002788 50                              	PUSH	EAX
  4115 00002789 FF 71 04                        	PUSH	DWORD [4+ECX]
  4116 0000278C FF 31                           	PUSH	DWORD [ECX]
  4117 0000278E E8 [00000000]                   	CALL	_boxfill8
  4118 00002793 83 C4 1C                        	ADD	ESP,28
  4119 00002796 F7 45 18 00000001               	TEST	DWORD [24+EBP],1
  4120 0000279D 0F 85 FFFFFEBD                  	JNE	L672
  4121 000027A3                                 L691:
  4122 000027A3 8B 45 08                        	MOV	EAX,DWORD [8+EBP]
  4123 000027A6 40                              	INC	EAX
  4124 000027A7 50                              	PUSH	EAX
  4125 000027A8 8B 45 0C                        	MOV	EAX,DWORD [12+EBP]
  4126 000027AB 40                              	INC	EAX
  4127 000027AC 50                              	PUSH	EAX
  4128 000027AD 57                              	PUSH	EDI
  4129 000027AE FF 75 24                        	PUSH	DWORD [36+EBP]
  4130 000027B1 EB B0                           	JMP	L764
  4131 000027B3                                 L682:
  4132 000027B3 8B 5D 18                        	MOV	EBX,DWORD [24+EBP]
  4133 000027B6 83 E7 F0                        	AND	EDI,-16
  4134 000027B9 03 5D EC                        	ADD	EBX,DWORD [-20+EBP]
  4135 000027BC 53                              	PUSH	EBX
  4136 000027BD E8 [00000000]                   	CALL	_memman_init
  4137 000027C2 57                              	PUSH	EDI
  4138 000027C3 FF 75 24                        	PUSH	DWORD [36+EBP]
  4139 000027C6 53                              	PUSH	EBX
  4140 000027C7 E8 [00000000]                   	CALL	_memman_free
  4141 000027CC 83 C4 10                        	ADD	ESP,16
  4142 000027CF E9 FFFFFE8C                     	JMP	L672
  4143 000027D4                                 L683:
  4144 000027D4 8D 47 0F                        	LEA	EAX,DWORD [15+EDI]
  4145 000027D7 83 E0 F0                        	AND	EAX,-16
  4146 000027DA 50                              	PUSH	EAX
  4147 000027DB 8B 45 18                        	MOV	EAX,DWORD [24+EBP]
  4148 000027DE 03 45 EC                        	ADD	EAX,DWORD [-20+EBP]
  4149 000027E1 50                              	PUSH	EAX
  4150 000027E2 E8 [00000000]                   	CALL	_memman_alloc
  4151 000027E7 89 45 44                        	MOV	DWORD [68+EBP],EAX
  4152 000027EA E9 FFFFFE88                     	JMP	L762
  4153 000027EF                                 L684:
  4154 000027EF 8D 47 0F                        	LEA	EAX,DWORD [15+EDI]
  4155 000027F2 83 E0 F0                        	AND	EAX,-16
  4156 000027F5 50                              	PUSH	EAX
  4157 000027F6 8B 45 18                        	MOV	EAX,DWORD [24+EBP]
  4158 000027F9 03 45 EC                        	ADD	EAX,DWORD [-20+EBP]
  4159 000027FC FF 75 24                        	PUSH	DWORD [36+EBP]
  4160 000027FF 50                              	PUSH	EAX
  4161 00002800 E8 [00000000]                   	CALL	_memman_free
  4162 00002805 E9 FFFFFE53                     	JMP	L759
  4163 0000280A                                 L685:
  4164 0000280A 8B 5D 18                        	MOV	EBX,DWORD [24+EBP]
  4165 0000280D 8B 45 08                        	MOV	EAX,DWORD [8+EBP]
  4166 00002810 83 E3 FE                        	AND	EBX,-2
  4167 00002813 8A 55 24                        	MOV	DL,BYTE [36+EBP]
  4168 00002816 89 5D E4                        	MOV	DWORD [-28+EBP],EBX
  4169 00002819 0F AF 43 04                     	IMUL	EAX,DWORD [4+EBX]
  4170 0000281D 03 45 0C                        	ADD	EAX,DWORD [12+EBP]
  4171 00002820 8B 0B                           	MOV	ECX,DWORD [EBX]
  4172 00002822 88 14 08                        	MOV	BYTE [EAX+ECX*1],DL
  4173 00002825 F7 45 18 00000001               	TEST	DWORD [24+EBP],1
  4174 0000282C 0F 85 FFFFFE2E                  	JNE	L672
  4175 00002832 8B 45 08                        	MOV	EAX,DWORD [8+EBP]
  4176 00002835 40                              	INC	EAX
  4177 00002836 50                              	PUSH	EAX
  4178 00002837 8B 45 0C                        	MOV	EAX,DWORD [12+EBP]
  4179 0000283A 40                              	INC	EAX
  4180 0000283B 50                              	PUSH	EAX
  4181 0000283C FF 75 08                        	PUSH	DWORD [8+EBP]
  4182 0000283F FF 75 0C                        	PUSH	DWORD [12+EBP]
  4183 00002842 53                              	PUSH	EBX
  4184 00002843 E9 FFFFFF1E                     	JMP	L761
  4185 00002848                                 L687:
  4186 00002848 FF 75 08                        	PUSH	DWORD [8+EBP]
  4187 0000284B FF 75 0C                        	PUSH	DWORD [12+EBP]
  4188 0000284E 57                              	PUSH	EDI
  4189 0000284F FF 75 24                        	PUSH	DWORD [36+EBP]
  4190 00002852 FF 75 18                        	PUSH	DWORD [24+EBP]
  4191 00002855 E9 FFFFFF0C                     	JMP	L761
  4192 0000285A                                 L688:
  4193 0000285A 56                              	PUSH	ESI
  4194 0000285B 8B 45 18                        	MOV	EAX,DWORD [24+EBP]
  4195 0000285E FF 75 08                        	PUSH	DWORD [8+EBP]
  4196 00002861 FF 75 0C                        	PUSH	DWORD [12+EBP]
  4197 00002864 57                              	PUSH	EDI
  4198 00002865 83 E0 FE                        	AND	EAX,-2
  4199 00002868 FF 75 24                        	PUSH	DWORD [36+EBP]
  4200 0000286B 50                              	PUSH	EAX
  4201 0000286C 89 45 E4                        	MOV	DWORD [-28+EBP],EAX
  4202 0000286F E8 00000401                     	CALL	_hrb_api_linewin
  4203 00002874 83 C4 18                        	ADD	ESP,24
  4204 00002877 F7 45 18 00000001               	TEST	DWORD [24+EBP],1
  4205 0000287E 0F 85 FFFFFDDC                  	JNE	L672
  4206 00002884 8B 45 24                        	MOV	EAX,DWORD [36+EBP]
  4207 00002887 3B 45 0C                        	CMP	EAX,DWORD [12+EBP]
  4208 0000288A 7E 09                           	JLE	L690
  4209 0000288C 8B 55 0C                        	MOV	EDX,DWORD [12+EBP]
  4210 0000288F 89 45 0C                        	MOV	DWORD [12+EBP],EAX
  4211 00002892 89 55 24                        	MOV	DWORD [36+EBP],EDX
  4212 00002895                                 L690:
  4213 00002895 3B 7D 08                        	CMP	EDI,DWORD [8+EBP]
  4214 00002898 0F 8E FFFFFF05                  	JLE	L691
  4215 0000289E 89 FE                           	MOV	ESI,EDI
  4216 000028A0 8B 7D 08                        	MOV	EDI,DWORD [8+EBP]
  4217 000028A3 89 75 08                        	MOV	DWORD [8+EBP],ESI
  4218 000028A6 E9 FFFFFEF8                     	JMP	L691
  4219 000028AB                                 L692:
  4220 000028AB FF 75 18                        	PUSH	DWORD [24+EBP]
  4221 000028AE E8 [00000000]                   	CALL	_sheet_free
  4222 000028B3                                 L760:
  4223 000028B3 5B                              	POP	EBX
  4224 000028B4 E9 FFFFFDA7                     	JMP	L672
  4225 000028B9                                 L694:
  4226 000028B9 E8 [00000000]                   	CALL	_io_cli
  4227 000028BE 8B 45 F0                        	MOV	EAX,DWORD [-16+EBP]
  4228 000028C1 83 C0 10                        	ADD	EAX,16
  4229 000028C4 50                              	PUSH	EAX
  4230 000028C5 E8 [00000000]                   	CALL	_fifo32_status
  4231 000028CA 5A                              	POP	EDX
  4232 000028CB 85 C0                           	TEST	EAX,EAX
  4233 000028CD 75 13                           	JNE	L697
  4234 000028CF 83 7D 24 00                     	CMP	DWORD [36+EBP],0
  4235 000028D3 0F 84 000000B9                  	JE	L698
  4236 000028D9 FF 75 F0                        	PUSH	DWORD [-16+EBP]
  4237 000028DC E8 [00000000]                   	CALL	_task_sleep
  4238 000028E1 58                              	POP	EAX
  4239 000028E2                                 L697:
  4240 000028E2 8B 7D F0                        	MOV	EDI,DWORD [-16+EBP]
  4241 000028E5 83 C7 10                        	ADD	EDI,16
  4242 000028E8 57                              	PUSH	EDI
  4243 000028E9 E8 [00000000]                   	CALL	_fifo32_get
  4244 000028EE 89 C6                           	MOV	ESI,EAX
  4245 000028F0 E8 [00000000]                   	CALL	_io_sti
  4246 000028F5 58                              	POP	EAX
  4247 000028F6 83 FE 01                        	CMP	ESI,1
  4248 000028F9 7E 75                           	JLE	L765
  4249 000028FB                                 L700:
  4250 000028FB 83 FE 02                        	CMP	ESI,2
  4251 000028FE 74 67                           	JE	L766
  4252 00002900                                 L701:
  4253 00002900 83 FE 03                        	CMP	ESI,3
  4254 00002903 74 59                           	JE	L767
  4255 00002905                                 L702:
  4256 00002905 83 FE 04                        	CMP	ESI,4
  4257 00002908 74 16                           	JE	L768
  4258 0000290A                                 L703:
  4259 0000290A 8D 86 FFFFFF00                  	LEA	EAX,DWORD [-256+ESI]
  4260 00002910 81 FE 000000FF                  	CMP	ESI,255
  4261 00002916 7E A1                           	JLE	L694
  4262 00002918                                 L758:
  4263 00002918 89 45 44                        	MOV	DWORD [68+EBP],EAX
  4264 0000291B E9 FFFFFD40                     	JMP	L672
  4265 00002920                                 L768:
  4266 00002920 FF 73 10                        	PUSH	DWORD [16+EBX]
  4267 00002923 E8 [00000000]                   	CALL	_timer_cancel
  4268 00002928 E8 [00000000]                   	CALL	_io_cli
  4269 0000292D 8B 03                           	MOV	EAX,DWORD [EBX]
  4270 0000292F 2B 45 E8                        	SUB	EAX,DWORD [-24+EBP]
  4271 00002932 2D 00000414                     	SUB	EAX,1044
  4272 00002937 C1 F8 03                        	SAR	EAX,3
  4273 0000293A 69 C0 CCCCCCCD                  	IMUL	EAX,EAX,-858993459
  4274 00002940 05 000007E8                     	ADD	EAX,2024
  4275 00002945 50                              	PUSH	EAX
  4276 00002946 FF 75 E0                        	PUSH	DWORD [-32+EBP]
  4277 00002949 E8 [00000000]                   	CALL	_fifo32_put
  4278 0000294E C7 03 00000000                  	MOV	DWORD [EBX],0
  4279 00002954 E8 [00000000]                   	CALL	_io_sti
  4280 00002959 83 C4 0C                        	ADD	ESP,12
  4281 0000295C EB AC                           	JMP	L703
  4282 0000295E                                 L767:
  4283 0000295E C7 43 0C FFFFFFFF               	MOV	DWORD [12+EBX],-1
  4284 00002965 EB 9E                           	JMP	L702
  4285 00002967                                 L766:
  4286 00002967 C7 43 0C 00000007               	MOV	DWORD [12+EBX],7
  4287 0000296E EB 90                           	JMP	L701
  4288 00002970                                 L765:
  4289 00002970 83 3B 00                        	CMP	DWORD [EBX],0
  4290 00002973 74 86                           	JE	L700
  4291 00002975 6A 01                           	PUSH	1
  4292 00002977 57                              	PUSH	EDI
  4293 00002978 FF 73 10                        	PUSH	DWORD [16+EBX]
  4294 0000297B E8 [00000000]                   	CALL	_timer_init
  4295 00002980 6A 32                           	PUSH	50
  4296 00002982 FF 73 10                        	PUSH	DWORD [16+EBX]
  4297 00002985 E8 [00000000]                   	CALL	_timer_settime
  4298 0000298A 83 C4 14                        	ADD	ESP,20
  4299 0000298D E9 FFFFFF69                     	JMP	L700
  4300 00002992                                 L698:
  4301 00002992 E8 [00000000]                   	CALL	_io_sti
  4302 00002997 C7 45 44 FFFFFFFF               	MOV	DWORD [68+EBP],-1
  4303 0000299E E9 FFFFFCBD                     	JMP	L672
  4304 000029A3                                 L705:
  4305 000029A3 E8 [00000000]                   	CALL	_timer_alloc
  4306 000029A8 89 45 44                        	MOV	DWORD [68+EBP],EAX
  4307 000029AB C6 40 09 01                     	MOV	BYTE [9+EAX],1
  4308 000029AF E9 FFFFFCAC                     	JMP	L672
  4309 000029B4                                 L706:
  4310 000029B4 8B 45 24                        	MOV	EAX,DWORD [36+EBP]
  4311 000029B7 05 00000100                     	ADD	EAX,256
  4312 000029BC 50                              	PUSH	EAX
  4313 000029BD 8B 45 F0                        	MOV	EAX,DWORD [-16+EBP]
  4314 000029C0 83 C0 10                        	ADD	EAX,16
  4315 000029C3 50                              	PUSH	EAX
  4316 000029C4 FF 75 18                        	PUSH	DWORD [24+EBP]
  4317 000029C7 E8 [00000000]                   	CALL	_timer_init
  4318 000029CC E9 FFFFFC8C                     	JMP	L759
  4319 000029D1                                 L707:
  4320 000029D1 FF 75 24                        	PUSH	DWORD [36+EBP]
  4321 000029D4 FF 75 18                        	PUSH	DWORD [24+EBP]
  4322 000029D7 E8 [00000000]                   	CALL	_timer_settime
  4323 000029DC E9 FFFFFC96                     	JMP	L762
  4324 000029E1                                 L708:
  4325 000029E1 FF 75 18                        	PUSH	DWORD [24+EBP]
  4326 000029E4 E8 [00000000]                   	CALL	_timer_free
  4327 000029E9 E9 FFFFFEC5                     	JMP	L760
  4328 000029EE                                 L709:
  4329 000029EE 8B 55 24                        	MOV	EDX,DWORD [36+EBP]
  4330 000029F1 85 D2                           	TEST	EDX,EDX
  4331 000029F3 75 19                           	JNE	L710
  4332 000029F5 6A 61                           	PUSH	97
  4333 000029F7 E8 [00000000]                   	CALL	_io_in8
  4334 000029FC 89 C6                           	MOV	ESI,EAX
  4335 000029FE 83 E6 0D                        	AND	ESI,13
  4336 00002A01 56                              	PUSH	ESI
  4337 00002A02 6A 61                           	PUSH	97
  4338 00002A04 E8 [00000000]                   	CALL	_io_out8
  4339 00002A09 E9 FFFFFC4F                     	JMP	L759
  4340 00002A0E                                 L710:
  4341 00002A0E B9 471E7B60                     	MOV	ECX,1193180000
  4342 00002A13 89 D3                           	MOV	EBX,EDX
  4343 00002A15 89 C8                           	MOV	EAX,ECX
  4344 00002A17 68 000000B6                     	PUSH	182
  4345 00002A1C 99                              	CDQ
  4346 00002A1D F7 FB                           	IDIV	EBX
  4347 00002A1F 6A 43                           	PUSH	67
  4348 00002A21 89 C6                           	MOV	ESI,EAX
  4349 00002A23 E8 [00000000]                   	CALL	_io_out8
  4350 00002A28 89 F0                           	MOV	EAX,ESI
  4351 00002A2A C1 FE 08                        	SAR	ESI,8
  4352 00002A2D 25 000000FF                     	AND	EAX,255
  4353 00002A32 50                              	PUSH	EAX
  4354 00002A33 6A 42                           	PUSH	66
  4355 00002A35 E8 [00000000]                   	CALL	_io_out8
  4356 00002A3A 56                              	PUSH	ESI
  4357 00002A3B 6A 42                           	PUSH	66
  4358 00002A3D E8 [00000000]                   	CALL	_io_out8
  4359 00002A42 6A 61                           	PUSH	97
  4360 00002A44 E8 [00000000]                   	CALL	_io_in8
  4361 00002A49 89 C6                           	MOV	ESI,EAX
  4362 00002A4B 83 CE 03                        	OR	ESI,3
  4363 00002A4E 83 E6 0F                        	AND	ESI,15
  4364 00002A51 56                              	PUSH	ESI
  4365 00002A52 6A 61                           	PUSH	97
  4366 00002A54 E8 [00000000]                   	CALL	_io_out8
  4367 00002A59 83 C4 24                        	ADD	ESP,36
  4368 00002A5C E9 FFFFFBFF                     	JMP	L672
  4369 00002A61                                 L712:
  4370 00002A61 31 F6                           	XOR	ESI,ESI
  4371 00002A63 31 C0                           	XOR	EAX,EAX
  4372 00002A65                                 L718:
  4373 00002A65 8B 4D F0                        	MOV	ECX,DWORD [-16+EBP]
  4374 00002A68 8B 91 000000B0                  	MOV	EDX,DWORD [176+ECX]
  4375 00002A6E 83 3C 02 00                     	CMP	DWORD [EDX+EAX*1],0
  4376 00002A72 74 09                           	JE	L714
  4377 00002A74 46                              	INC	ESI
  4378 00002A75 83 C0 0C                        	ADD	EAX,12
  4379 00002A78 83 FE 07                        	CMP	ESI,7
  4380 00002A7B 7E E8                           	JLE	L718
  4381 00002A7D                                 L714:
  4382 00002A7D 6B C6 0C                        	IMUL	EAX,ESI,12
  4383 00002A80 C7 45 44 00000000               	MOV	DWORD [68+EBP],0
  4384 00002A87 8D 1C 10                        	LEA	EBX,DWORD [EAX+EDX*1]
  4385 00002A8A 83 FE 07                        	CMP	ESI,7
  4386 00002A8D 0F 8F FFFFFBCD                  	JG	L672
  4387 00002A93 8B 45 18                        	MOV	EAX,DWORD [24+EBP]
  4388 00002A96 68 000000E0                     	PUSH	224
  4389 00002A9B 03 45 EC                        	ADD	EAX,DWORD [-20+EBP]
  4390 00002A9E 68 00102600                     	PUSH	1058304
  4391 00002AA3 50                              	PUSH	EAX
  4392 00002AA4 E8 [00000000]                   	CALL	_file_search
  4393 00002AA9 83 C4 0C                        	ADD	ESP,12
  4394 00002AAC 89 C2                           	MOV	EDX,EAX
  4395 00002AAE 85 C0                           	TEST	EAX,EAX
  4396 00002AB0 0F 84 FFFFFBAA                  	JE	L672
  4397 00002AB6 89 5D 44                        	MOV	DWORD [68+EBP],EBX
  4398 00002AB9 8B 40 1C                        	MOV	EAX,DWORD [28+EAX]
  4399 00002ABC 89 43 04                        	MOV	DWORD [4+EBX],EAX
  4400 00002ABF 8B 45 F0                        	MOV	EAX,DWORD [-16+EBP]
  4401 00002AC2 C7 43 08 00000000               	MOV	DWORD [8+EBX],0
  4402 00002AC9 FF B0 000000B4                  	PUSH	DWORD [180+EAX]
  4403 00002ACF 8D 43 04                        	LEA	EAX,DWORD [4+EBX]
  4404 00002AD2 50                              	PUSH	EAX
  4405 00002AD3 0F B7 42 1A                     	MOVZX	EAX,WORD [26+EDX]
  4406 00002AD7 50                              	PUSH	EAX
  4407 00002AD8 E8 [00000000]                   	CALL	_file_loadfile2
  4408 00002ADD 89 03                           	MOV	DWORD [EBX],EAX
  4409 00002ADF E9 FFFFFB79                     	JMP	L759
  4410 00002AE4                                 L721:
  4411 00002AE4 8B 5D 24                        	MOV	EBX,DWORD [36+EBP]
  4412 00002AE7 FF 73 04                        	PUSH	DWORD [4+EBX]
  4413 00002AEA FF 33                           	PUSH	DWORD [EBX]
  4414 00002AEC 68 003C0000                     	PUSH	3932160
  4415 00002AF1 E8 [00000000]                   	CALL	_memman_free_4k
  4416 00002AF6 C7 03 00000000                  	MOV	DWORD [EBX],0
  4417 00002AFC E9 FFFFFB5C                     	JMP	L759
  4418 00002B01                                 L722:
  4419 00002B01 8B 5D 24                        	MOV	EBX,DWORD [36+EBP]
  4420 00002B04 85 FF                           	TEST	EDI,EDI
  4421 00002B06 74 33                           	JE	L757
  4422 00002B08 83 FF 01                        	CMP	EDI,1
  4423 00002B0B 74 36                           	JE	L769
  4424 00002B0D 83 FF 02                        	CMP	EDI,2
  4425 00002B10 74 23                           	JE	L770
  4426 00002B12                                 L724:
  4427 00002B12 83 7B 08 00                     	CMP	DWORD [8+EBX],0
  4428 00002B16 78 14                           	JS	L771
  4429 00002B18                                 L728:
  4430 00002B18 8B 43 04                        	MOV	EAX,DWORD [4+EBX]
  4431 00002B1B 39 43 08                        	CMP	DWORD [8+EBX],EAX
  4432 00002B1E 0F 8E FFFFFB3C                  	JLE	L672
  4433 00002B24 89 43 08                        	MOV	DWORD [8+EBX],EAX
  4434 00002B27 E9 FFFFFB34                     	JMP	L672
  4435 00002B2C                                 L771:
  4436 00002B2C C7 43 08 00000000               	MOV	DWORD [8+EBX],0
  4437 00002B33 EB E3                           	JMP	L728
  4438 00002B35                                 L770:
  4439 00002B35 8B 43 04                        	MOV	EAX,DWORD [4+EBX]
  4440 00002B38 01 45 18                        	ADD	DWORD [24+EBP],EAX
  4441 00002B3B                                 L757:
  4442 00002B3B 8B 55 18                        	MOV	EDX,DWORD [24+EBP]
  4443 00002B3E 89 53 08                        	MOV	DWORD [8+EBX],EDX
  4444 00002B41 EB CF                           	JMP	L724
  4445 00002B43                                 L769:
  4446 00002B43 8B 4D 18                        	MOV	ECX,DWORD [24+EBP]
  4447 00002B46 01 4B 08                        	ADD	DWORD [8+EBX],ECX
  4448 00002B49 EB C7                           	JMP	L724
  4449 00002B4B                                 L730:
  4450 00002B4B 8B 5D 24                        	MOV	EBX,DWORD [36+EBP]
  4451 00002B4E 85 FF                           	TEST	EDI,EDI
  4452 00002B50 75 08                           	JNE	L731
  4453 00002B52 8B 43 04                        	MOV	EAX,DWORD [4+EBX]
  4454 00002B55 E9 FFFFFDBE                     	JMP	L758
  4455 00002B5A                                 L731:
  4456 00002B5A 83 FF 01                        	CMP	EDI,1
  4457 00002B5D 74 14                           	JE	L772
  4458 00002B5F 83 FF 02                        	CMP	EDI,2
  4459 00002B62 0F 85 FFFFFAF8                  	JNE	L672
  4460 00002B68 8B 43 08                        	MOV	EAX,DWORD [8+EBX]
  4461 00002B6B 2B 43 04                        	SUB	EAX,DWORD [4+EBX]
  4462 00002B6E E9 FFFFFDA5                     	JMP	L758
  4463 00002B73                                 L772:
  4464 00002B73 8B 43 08                        	MOV	EAX,DWORD [8+EBX]
  4465 00002B76 E9 FFFFFD9D                     	JMP	L758
  4466 00002B7B                                 L736:
  4467 00002B7B 31 F6                           	XOR	ESI,ESI
  4468 00002B7D 8B 5D 24                        	MOV	EBX,DWORD [36+EBP]
  4469 00002B80 39 FE                           	CMP	ESI,EDI
  4470 00002B82 7D 1E                           	JGE	L745
  4471 00002B84                                 L742:
  4472 00002B84 8B 4B 08                        	MOV	ECX,DWORD [8+EBX]
  4473 00002B87 3B 4B 04                        	CMP	ECX,DWORD [4+EBX]
  4474 00002B8A 74 16                           	JE	L745
  4475 00002B8C 8B 45 18                        	MOV	EAX,DWORD [24+EBP]
  4476 00002B8F 8B 13                           	MOV	EDX,DWORD [EBX]
  4477 00002B91 03 45 EC                        	ADD	EAX,DWORD [-20+EBP]
  4478 00002B94 8A 14 11                        	MOV	DL,BYTE [ECX+EDX*1]
  4479 00002B97 88 14 06                        	MOV	BYTE [ESI+EAX*1],DL
  4480 00002B9A 46                              	INC	ESI
  4481 00002B9B FF 43 08                        	INC	DWORD [8+EBX]
  4482 00002B9E 39 FE                           	CMP	ESI,EDI
  4483 00002BA0 7C E2                           	JL	L742
  4484 00002BA2                                 L745:
  4485 00002BA2 89 75 44                        	MOV	DWORD [68+EBP],ESI
  4486 00002BA5 E9 FFFFFAB6                     	JMP	L672
  4487 00002BAA                                 L743:
  4488 00002BAA 31 F6                           	XOR	ESI,ESI
  4489 00002BAC                                 L744:
  4490 00002BAC 8B 4D F0                        	MOV	ECX,DWORD [-16+EBP]
  4491 00002BAF 8B 55 18                        	MOV	EDX,DWORD [24+EBP]
  4492 00002BB2 03 55 EC                        	ADD	EDX,DWORD [-20+EBP]
  4493 00002BB5 8B 81 000000B8                  	MOV	EAX,DWORD [184+ECX]
  4494 00002BBB 8A 04 06                        	MOV	AL,BYTE [ESI+EAX*1]
  4495 00002BBE 88 04 16                        	MOV	BYTE [ESI+EDX*1],AL
  4496 00002BC1 8B 81 000000B8                  	MOV	EAX,DWORD [184+ECX]
  4497 00002BC7 80 3C 06 00                     	CMP	BYTE [ESI+EAX*1],0
  4498 00002BCB 74 D5                           	JE	L745
  4499 00002BCD 39 FE                           	CMP	ESI,EDI
  4500 00002BCF 7D D1                           	JGE	L745
  4501 00002BD1 46                              	INC	ESI
  4502 00002BD2 EB D8                           	JMP	L744
  4503 00002BD4                                 L749:
  4504 00002BD4 8B 5D F0                        	MOV	EBX,DWORD [-16+EBP]
  4505 00002BD7 0F B6 83 000000BC               	MOVZX	EAX,BYTE [188+EBX]
  4506 00002BDE E9 FFFFFD35                     	JMP	L758
  4507                                          [SECTION .data]
  4508 00000A68                                 LC127:
  4509 00000A68 0A 49 4E 54 20 30 43 20 3A 0A   	DB	0x0A,"INT 0C :",0x0A," Stack Exception.",0x0A,0x00
       00000A72 20 53 74 61 63 6B 20 45 78 63 
       00000A7C 65 70 74 69 6F 6E 2E 0A 00 
  4510 00000A85                                 LC128:
  4511 00000A85 45 49 50 20 3D 20 25 30 38 58   	DB	"EIP = %08X",0x0A,0x00
       00000A8F 0A 00 
  4512                                          [SECTION .text]
  4513 00002BE3                                 	GLOBAL	_inthandler0c
  4514 00002BE3                                 _inthandler0c:
  4515 00002BE3 55                              	PUSH	EBP
  4516 00002BE4 89 E5                           	MOV	EBP,ESP
  4517 00002BE6 57                              	PUSH	EDI
  4518 00002BE7 56                              	PUSH	ESI
  4519 00002BE8 53                              	PUSH	EBX
  4520 00002BE9 8D 5D D4                        	LEA	EBX,DWORD [-44+EBP]
  4521 00002BEC 83 EC 20                        	SUB	ESP,32
  4522 00002BEF E8 [00000000]                   	CALL	_task_now
  4523 00002BF4 89 C6                           	MOV	ESI,EAX
  4524 00002BF6 8B B8 000000A4                  	MOV	EDI,DWORD [164+EAX]
  4525 00002BFC 83 C6 30                        	ADD	ESI,48
  4526 00002BFF 68 [00000A68]                   	PUSH	LC127
  4527 00002C04 57                              	PUSH	EDI
  4528 00002C05 E8 FFFFD9C0                     	CALL	_cons_putstr0
  4529 00002C0A 8B 45 08                        	MOV	EAX,DWORD [8+EBP]
  4530 00002C0D FF 70 2C                        	PUSH	DWORD [44+EAX]
  4531 00002C10 68 [00000A85]                   	PUSH	LC128
  4532 00002C15 53                              	PUSH	EBX
  4533 00002C16 E8 [00000000]                   	CALL	_sprintf
  4534 00002C1B 53                              	PUSH	EBX
  4535 00002C1C 57                              	PUSH	EDI
  4536 00002C1D E8 FFFFD9A8                     	CALL	_cons_putstr0
  4537 00002C22 8D 65 F4                        	LEA	ESP,DWORD [-12+EBP]
  4538 00002C25 5B                              	POP	EBX
  4539 00002C26 89 F0                           	MOV	EAX,ESI
  4540 00002C28 5E                              	POP	ESI
  4541 00002C29 5F                              	POP	EDI
  4542 00002C2A 5D                              	POP	EBP
  4543 00002C2B C3                              	RET
  4544                                          [SECTION .data]
  4545 00000A91                                 LC129:
  4546 00000A91 0A 49 4E 54 20 30 44 20 3A 0A   	DB	0x0A,"INT 0D :",0x0A," General Protected Exception.",0x0A,0x00
       00000A9B 20 47 65 6E 65 72 61 6C 20 50 
       00000AA5 72 6F 74 65 63 74 65 64 20 45 
       00000AAF 78 63 65 70 74 69 6F 6E 2E 0A 
       00000AB9 00 
  4547                                          [SECTION .text]
  4548 00002C2C                                 	GLOBAL	_inthandler0d
  4549 00002C2C                                 _inthandler0d:
  4550 00002C2C 55                              	PUSH	EBP
  4551 00002C2D 89 E5                           	MOV	EBP,ESP
  4552 00002C2F 57                              	PUSH	EDI
  4553 00002C30 56                              	PUSH	ESI
  4554 00002C31 53                              	PUSH	EBX
  4555 00002C32 8D 5D D4                        	LEA	EBX,DWORD [-44+EBP]
  4556 00002C35 83 EC 20                        	SUB	ESP,32
  4557 00002C38 E8 [00000000]                   	CALL	_task_now
  4558 00002C3D 89 C6                           	MOV	ESI,EAX
  4559 00002C3F 8B B8 000000A4                  	MOV	EDI,DWORD [164+EAX]
  4560 00002C45 83 C6 30                        	ADD	ESI,48
  4561 00002C48 68 [00000A91]                   	PUSH	LC129
  4562 00002C4D 57                              	PUSH	EDI
  4563 00002C4E E8 FFFFD977                     	CALL	_cons_putstr0
  4564 00002C53 8B 45 08                        	MOV	EAX,DWORD [8+EBP]
  4565 00002C56 FF 70 2C                        	PUSH	DWORD [44+EAX]
  4566 00002C59 68 [00000A85]                   	PUSH	LC128
  4567 00002C5E 53                              	PUSH	EBX
  4568 00002C5F E8 [00000000]                   	CALL	_sprintf
  4569 00002C64 53                              	PUSH	EBX
  4570 00002C65 57                              	PUSH	EDI
  4571 00002C66 E8 FFFFD95F                     	CALL	_cons_putstr0
  4572 00002C6B 8D 65 F4                        	LEA	ESP,DWORD [-12+EBP]
  4573 00002C6E 5B                              	POP	EBX
  4574 00002C6F 89 F0                           	MOV	EAX,ESI
  4575 00002C71 5E                              	POP	ESI
  4576 00002C72 5F                              	POP	EDI
  4577 00002C73 5D                              	POP	EBP
  4578 00002C74 C3                              	RET
  4579 00002C75                                 	GLOBAL	_hrb_api_linewin
  4580 00002C75                                 _hrb_api_linewin:
  4581 00002C75 55                              	PUSH	EBP
  4582 00002C76 89 E5                           	MOV	EBP,ESP
  4583 00002C78 57                              	PUSH	EDI
  4584 00002C79 56                              	PUSH	ESI
  4585 00002C7A 53                              	PUSH	EBX
  4586 00002C7B 83 EC 0C                        	SUB	ESP,12
  4587 00002C7E 8B 5D 0C                        	MOV	EBX,DWORD [12+EBP]
  4588 00002C81 8B 45 14                        	MOV	EAX,DWORD [20+EBP]
  4589 00002C84 89 D9                           	MOV	ECX,EBX
  4590 00002C86 8B 55 18                        	MOV	EDX,DWORD [24+EBP]
  4591 00002C89 C1 E1 0A                        	SAL	ECX,10
  4592 00002C8C 89 D7                           	MOV	EDI,EDX
  4593 00002C8E 89 4D F0                        	MOV	DWORD [-16+EBP],ECX
  4594 00002C91 89 C6                           	MOV	ESI,EAX
  4595 00002C93 8B 4D 10                        	MOV	ECX,DWORD [16+EBP]
  4596 00002C96 2B 7D 10                        	SUB	EDI,DWORD [16+EBP]
  4597 00002C99 C1 E1 0A                        	SAL	ECX,10
  4598 00002C9C 29 DE                           	SUB	ESI,EBX
  4599 00002C9E 89 4D EC                        	MOV	DWORD [-20+EBP],ECX
  4600 00002CA1 0F 88 000000A3                  	JS	L797
  4601 00002CA7                                 L776:
  4602 00002CA7 85 FF                           	TEST	EDI,EDI
  4603 00002CA9 0F 88 00000094                  	JS	L798
  4604 00002CAF                                 L777:
  4605 00002CAF 39 FE                           	CMP	ESI,EDI
  4606 00002CB1 7C 62                           	JL	L778
  4607 00002CB3 8D 4E 01                        	LEA	ECX,DWORD [1+ESI]
  4608 00002CB6 39 C3                           	CMP	EBX,EAX
  4609 00002CB8 BE FFFFFC00                     	MOV	ESI,-1024
  4610 00002CBD 7F 05                           	JG	L780
  4611 00002CBF BE 00000400                     	MOV	ESI,1024
  4612 00002CC4                                 L780:
  4613 00002CC4 39 55 10                        	CMP	DWORD [16+EBP],EDX
  4614 00002CC7 7F 46                           	JG	L781
  4615 00002CC9 2B 55 10                        	SUB	EDX,DWORD [16+EBP]
  4616 00002CCC 42                              	INC	EDX
  4617 00002CCD                                 L796:
  4618 00002CCD C1 E2 0A                        	SAL	EDX,10
  4619 00002CD0 89 D0                           	MOV	EAX,EDX
  4620 00002CD2 99                              	CDQ
  4621 00002CD3 F7 F9                           	IDIV	ECX
  4622 00002CD5 89 C7                           	MOV	EDI,EAX
  4623 00002CD7                                 L783:
  4624 00002CD7 85 C9                           	TEST	ECX,ECX
  4625 00002CD9 7E 2C                           	JLE	L794
  4626 00002CDB 89 CB                           	MOV	EBX,ECX
  4627 00002CDD                                 L792:
  4628 00002CDD 8B 55 08                        	MOV	EDX,DWORD [8+EBP]
  4629 00002CE0 8B 45 EC                        	MOV	EAX,DWORD [-20+EBP]
  4630 00002CE3 C1 F8 0A                        	SAR	EAX,10
  4631 00002CE6 8B 4D F0                        	MOV	ECX,DWORD [-16+EBP]
  4632 00002CE9 0F AF 42 04                     	IMUL	EAX,DWORD [4+EDX]
  4633 00002CED C1 F9 0A                        	SAR	ECX,10
  4634 00002CF0 89 4D E8                        	MOV	DWORD [-24+EBP],ECX
  4635 00002CF3 8B 0A                           	MOV	ECX,DWORD [EDX]
  4636 00002CF5 03 45 E8                        	ADD	EAX,DWORD [-24+EBP]
  4637 00002CF8 8A 55 1C                        	MOV	DL,BYTE [28+EBP]
  4638 00002CFB 88 14 08                        	MOV	BYTE [EAX+ECX*1],DL
  4639 00002CFE 01 75 F0                        	ADD	DWORD [-16+EBP],ESI
  4640 00002D01 01 7D EC                        	ADD	DWORD [-20+EBP],EDI
  4641 00002D04 4B                              	DEC	EBX
  4642 00002D05 75 D6                           	JNE	L792
  4643 00002D07                                 L794:
  4644 00002D07 83 C4 0C                        	ADD	ESP,12
  4645 00002D0A 5B                              	POP	EBX
  4646 00002D0B 5E                              	POP	ESI
  4647 00002D0C 5F                              	POP	EDI
  4648 00002D0D 5D                              	POP	EBP
  4649 00002D0E C3                              	RET
  4650 00002D0F                                 L781:
  4651 00002D0F 2B 55 10                        	SUB	EDX,DWORD [16+EBP]
  4652 00002D12 4A                              	DEC	EDX
  4653 00002D13 EB B8                           	JMP	L796
  4654 00002D15                                 L778:
  4655 00002D15 8D 4F 01                        	LEA	ECX,DWORD [1+EDI]
  4656 00002D18 39 55 10                        	CMP	DWORD [16+EBP],EDX
  4657 00002D1B BF FFFFFC00                     	MOV	EDI,-1024
  4658 00002D20 7F 05                           	JG	L785
  4659 00002D22 BF 00000400                     	MOV	EDI,1024
  4660 00002D27                                 L785:
  4661 00002D27 39 C3                           	CMP	EBX,EAX
  4662 00002D29 7F 11                           	JG	L786
  4663 00002D2B 29 D8                           	SUB	EAX,EBX
  4664 00002D2D 8D 50 01                        	LEA	EDX,DWORD [1+EAX]
  4665 00002D30                                 L795:
  4666 00002D30 C1 E2 0A                        	SAL	EDX,10
  4667 00002D33 89 D0                           	MOV	EAX,EDX
  4668 00002D35 99                              	CDQ
  4669 00002D36 F7 F9                           	IDIV	ECX
  4670 00002D38 89 C6                           	MOV	ESI,EAX
  4671 00002D3A EB 9B                           	JMP	L783
  4672 00002D3C                                 L786:
  4673 00002D3C 29 D8                           	SUB	EAX,EBX
  4674 00002D3E 8D 50 FF                        	LEA	EDX,DWORD [-1+EAX]
  4675 00002D41 EB ED                           	JMP	L795
  4676 00002D43                                 L798:
  4677 00002D43 F7 DF                           	NEG	EDI
  4678 00002D45 E9 FFFFFF65                     	JMP	L777
  4679 00002D4A                                 L797:
  4680 00002D4A F7 DE                           	NEG	ESI
  4681 00002D4C E9 FFFFFF56                     	JMP	L776
  4682 00002D51                                 	GLOBAL	_log
  4683                                          [SECTION .data]
  4684 00000ABA 00 00                           	ALIGNB	4
  4685 00000ABC                                 _log:
  4686 00000ABC 00 00 00 00                     	RESB	4
  4687 00000AC0                                 	GLOBAL	_cp
  4688                                          [SECTION .data]
  4689 00000AC0                                 	ALIGNB	4
  4690 00000AC0                                 _cp:
  4691 00000AC0 00 00 00 00                     	RESB	4
